---
triple:          'arm64-apple-darwin'
binary-path:     '/Users/paulosoares/personal/phd/code/tomcat-coordination/.pytensor_compiles/compiledir_2024.10.16--21.29.11_1/tmpjpujvwl1/mf754ab3f548ea2f7adeb93cc851997000382ac98afdc947dfef953ee9f2f6d3e.so'
relocations:
  - { offsetInCU: 0x26, offset: 0x26, size: 0x8, addend: 0x0, symName: _PyInit_mf754ab3f548ea2f7adeb93cc851997000382ac98afdc947dfef953ee9f2f6d3e, symObjAddr: 0x0, symBinAddr: 0xE60, symSize: 0x224 }
  - { offsetInCU: 0x53, offset: 0x53, size: 0x8, addend: 0x0, symName: __ZL11PyArray_API, symObjAddr: 0x29500, symBinAddr: 0x8140, symSize: 0x0 }
  - { offsetInCU: 0x73, offset: 0x73, size: 0x8, addend: 0x0, symName: __ZL9moduledef, symObjAddr: 0x2F68, symBinAddr: 0x8098, symSize: 0x0 }
  - { offsetInCU: 0xC86, offset: 0xC86, size: 0x8, addend: 0x0, symName: __ZL9MyMethods, symObjAddr: 0x2FD0, symBinAddr: 0x8100, symSize: 0x0 }
  - { offsetInCU: 0x20BF, offset: 0x20BF, size: 0x8, addend: 0x0, symName: __ZNSt3__111__sift_downB8un170006INS_17_ClassicAlgPolicyERNS_6__lessIvvEENS_16reverse_iteratorINS_11__wrap_iterIPNS_4pairIiiEEEEEEEEvT1_OT0_NS_15iterator_traitsISC_E15difference_typeESC_, symObjAddr: 0x149C, symBinAddr: 0x22FC, symSize: 0x130 }
  - { offsetInCU: 0x23D3, offset: 0x23D3, size: 0x8, addend: 0x0, symName: __ZNSt3__111__introsortINS_17_ClassicAlgPolicyERNS_6__lessIvvEENS_16reverse_iteratorINS_11__wrap_iterIPNS_4pairIiiEEEEEELb0EEEvT1_SC_T0_NS_15iterator_traitsISC_E15difference_typeEb, symObjAddr: 0x1728, symBinAddr: 0x2588, symSize: 0x760 }
  - { offsetInCU: 0x3667, offset: 0x3667, size: 0x8, addend: 0x0, symName: __ZNSt3__131__partition_with_equals_on_leftB8un170006INS_17_ClassicAlgPolicyENS_16reverse_iteratorINS_11__wrap_iterIPNS_4pairIiiEEEEEERNS_6__lessIvvEEEET0_SC_SC_T1_, symObjAddr: 0x201C, symBinAddr: 0x2E7C, symSize: 0x18C }
  - { offsetInCU: 0x39E5, offset: 0x39E5, size: 0x8, addend: 0x0, symName: __ZNSt3__132__partition_with_equals_on_rightB8un170006INS_17_ClassicAlgPolicyENS_16reverse_iteratorINS_11__wrap_iterIPNS_4pairIiiEEEEEERNS_6__lessIvvEEEENS4_IT0_bEESC_SC_T1_, symObjAddr: 0x21A8, symBinAddr: 0x3008, symSize: 0x150 }
  - { offsetInCU: 0x3DFB, offset: 0x3DFB, size: 0x8, addend: 0x0, symName: __ZNSt3__127__insertion_sort_incompleteB8un170006INS_17_ClassicAlgPolicyERNS_6__lessIvvEENS_16reverse_iteratorINS_11__wrap_iterIPNS_4pairIiiEEEEEEEEbT1_SC_T0_, symObjAddr: 0x22F8, symBinAddr: 0x3158, symSize: 0x334 }
  - { offsetInCU: 0x5A5E, offset: 0x5A5E, size: 0x8, addend: 0x0, symName: __ZNSt3__119__partial_sort_implB8un170006INS_17_ClassicAlgPolicyERNS_6__lessIvvEENS_16reverse_iteratorINS_11__wrap_iterIPNS_4pairIiiEEEEEESB_EET1_SC_SC_T2_OT0_, symObjAddr: 0x1330, symBinAddr: 0x2190, symSize: 0x16C }
  - { offsetInCU: 0x5DB1, offset: 0x5DB1, size: 0x8, addend: 0x0, symName: __ZNSt3__110__pop_heapB8un170006INS_17_ClassicAlgPolicyENS_6__lessIvvEENS_16reverse_iteratorINS_11__wrap_iterIPNS_4pairIiiEEEEEEEEvT1_SB_RT0_NS_15iterator_traitsISB_E15difference_typeE, symObjAddr: 0x15CC, symBinAddr: 0x242C, symSize: 0x15C }
  - { offsetInCU: 0x664C, offset: 0x664C, size: 0x8, addend: 0x0, symName: __ZNSt3__17__sort3B8un170006INS_17_ClassicAlgPolicyERNS_6__lessIvvEENS_16reverse_iteratorINS_11__wrap_iterIPNS_4pairIiiEEEEEEEEjT1_SC_SC_T0_, symObjAddr: 0x1E88, symBinAddr: 0x2CE8, symSize: 0x194 }
  - { offsetInCU: 0x66B6, offset: 0x66B6, size: 0x8, addend: 0x0, symName: __ZNSt3__17__sort3B8un170006INS_17_ClassicAlgPolicyERNS_6__lessIvvEENS_16reverse_iteratorINS_11__wrap_iterIPNS_4pairIiiEEEEEEEEjT1_SC_SC_T0_, symObjAddr: 0x1E88, symBinAddr: 0x2CE8, symSize: 0x194 }
  - { offsetInCU: 0x66DC, offset: 0x66DC, size: 0x8, addend: 0x0, symName: __ZNSt3__17__sort3B8un170006INS_17_ClassicAlgPolicyERNS_6__lessIvvEENS_16reverse_iteratorINS_11__wrap_iterIPNS_4pairIiiEEEEEEEEjT1_SC_SC_T0_, symObjAddr: 0x1E88, symBinAddr: 0x2CE8, symSize: 0x194 }
  - { offsetInCU: 0x6AFA, offset: 0x6AFA, size: 0x8, addend: 0x0, symName: __ZNSt3__17__sort5B8un170006INS_17_ClassicAlgPolicyERNS_6__lessIvvEENS_16reverse_iteratorINS_11__wrap_iterIPNS_4pairIiiEEEEEEEEvT1_SC_SC_SC_SC_T0_, symObjAddr: 0x262C, symBinAddr: 0x348C, symSize: 0x21C }
  - { offsetInCU: 0x9A95, offset: 0x9A95, size: 0x8, addend: 0x0, symName: _PyInit_mf754ab3f548ea2f7adeb93cc851997000382ac98afdc947dfef953ee9f2f6d3e, symObjAddr: 0x0, symBinAddr: 0xE60, symSize: 0x224 }
  - { offsetInCU: 0x9D1B, offset: 0x9D1B, size: 0x8, addend: 0x0, symName: __ZL11instantiateP7_objectS0_, symObjAddr: 0x224, symBinAddr: 0x1084, symSize: 0x120 }
  - { offsetInCU: 0x9F07, offset: 0x9F07, size: 0x8, addend: 0x0, symName: __ZL95__struct_compiled_op_mf754ab3f548ea2f7adeb93cc851997000382ac98afdc947dfef953ee9f2f6d3e_executorPN12_GLOBAL__N_186__struct_compiled_op_mf754ab3f548ea2f7adeb93cc851997000382ac98afdc947dfef953ee9f2f6d3eE, symObjAddr: 0x344, symBinAddr: 0x11A4, symSize: 0xF54 }
  - { offsetInCU: 0x9F7C, offset: 0x9F7C, size: 0x8, addend: 0x0, symName: __ZL11instantiateP7_objectS0_.cold.1, symObjAddr: 0x2848, symBinAddr: 0x36A8, symSize: 0x28 }
  - { offsetInCU: 0x9F94, offset: 0x9F94, size: 0x8, addend: 0x0, symName: __ZL11instantiateP7_objectS0_.cold.2, symObjAddr: 0x2870, symBinAddr: 0x36D0, symSize: 0x28 }
  - { offsetInCU: 0xA4D3, offset: 0xA4D3, size: 0x8, addend: 0x0, symName: __ZL95__struct_compiled_op_mf754ab3f548ea2f7adeb93cc851997000382ac98afdc947dfef953ee9f2f6d3e_executorPN12_GLOBAL__N_186__struct_compiled_op_mf754ab3f548ea2f7adeb93cc851997000382ac98afdc947dfef953ee9f2f6d3eE, symObjAddr: 0x344, symBinAddr: 0x11A4, symSize: 0xF54 }
  - { offsetInCU: 0xB1C3, offset: 0xB1C3, size: 0x8, addend: 0x0, symName: __ZL95__struct_compiled_op_mf754ab3f548ea2f7adeb93cc851997000382ac98afdc947dfef953ee9f2f6d3e_executorPN12_GLOBAL__N_186__struct_compiled_op_mf754ab3f548ea2f7adeb93cc851997000382ac98afdc947dfef953ee9f2f6d3eE.cold.1, symObjAddr: 0x2898, symBinAddr: 0x36F8, symSize: 0x28 }
  - { offsetInCU: 0xB1F1, offset: 0xB1F1, size: 0x8, addend: 0x0, symName: __ZL95__struct_compiled_op_mf754ab3f548ea2f7adeb93cc851997000382ac98afdc947dfef953ee9f2f6d3e_executorPN12_GLOBAL__N_186__struct_compiled_op_mf754ab3f548ea2f7adeb93cc851997000382ac98afdc947dfef953ee9f2f6d3eE.cold.5, symObjAddr: 0x2938, symBinAddr: 0x3798, symSize: 0x28 }
  - { offsetInCU: 0xB247, offset: 0xB247, size: 0x8, addend: 0x0, symName: __ZL95__struct_compiled_op_mf754ab3f548ea2f7adeb93cc851997000382ac98afdc947dfef953ee9f2f6d3e_executorPN12_GLOBAL__N_186__struct_compiled_op_mf754ab3f548ea2f7adeb93cc851997000382ac98afdc947dfef953ee9f2f6d3eE.cold.2, symObjAddr: 0x28C0, symBinAddr: 0x3720, symSize: 0x28 }
  - { offsetInCU: 0xB275, offset: 0xB275, size: 0x8, addend: 0x0, symName: __ZL95__struct_compiled_op_mf754ab3f548ea2f7adeb93cc851997000382ac98afdc947dfef953ee9f2f6d3e_executorPN12_GLOBAL__N_186__struct_compiled_op_mf754ab3f548ea2f7adeb93cc851997000382ac98afdc947dfef953ee9f2f6d3eE.cold.3, symObjAddr: 0x28E8, symBinAddr: 0x3748, symSize: 0x28 }
  - { offsetInCU: 0xB2A3, offset: 0xB2A3, size: 0x8, addend: 0x0, symName: __ZL95__struct_compiled_op_mf754ab3f548ea2f7adeb93cc851997000382ac98afdc947dfef953ee9f2f6d3e_executorPN12_GLOBAL__N_186__struct_compiled_op_mf754ab3f548ea2f7adeb93cc851997000382ac98afdc947dfef953ee9f2f6d3eE.cold.4, symObjAddr: 0x2910, symBinAddr: 0x3770, symSize: 0x28 }
  - { offsetInCU: 0xB2D1, offset: 0xB2D1, size: 0x8, addend: 0x0, symName: __ZL95__struct_compiled_op_mf754ab3f548ea2f7adeb93cc851997000382ac98afdc947dfef953ee9f2f6d3e_executorPN12_GLOBAL__N_186__struct_compiled_op_mf754ab3f548ea2f7adeb93cc851997000382ac98afdc947dfef953ee9f2f6d3eE.cold.6, symObjAddr: 0x2960, symBinAddr: 0x37C0, symSize: 0x28 }
  - { offsetInCU: 0xB2FF, offset: 0xB2FF, size: 0x8, addend: 0x0, symName: __ZL95__struct_compiled_op_mf754ab3f548ea2f7adeb93cc851997000382ac98afdc947dfef953ee9f2f6d3e_executorPN12_GLOBAL__N_186__struct_compiled_op_mf754ab3f548ea2f7adeb93cc851997000382ac98afdc947dfef953ee9f2f6d3eE.cold.7, symObjAddr: 0x2988, symBinAddr: 0x37E8, symSize: 0x28 }
  - { offsetInCU: 0xB3C3, offset: 0xB3C3, size: 0x8, addend: 0x0, symName: __ZL97__struct_compiled_op_mf754ab3f548ea2f7adeb93cc851997000382ac98afdc947dfef953ee9f2f6d3e_destructorP7_object, symObjAddr: 0x1298, symBinAddr: 0x20F8, symSize: 0x98 }
...
