---
triple:          'arm64-apple-darwin'
binary-path:     '/Users/paulosoares/personal/phd/code/tomcat-coordination/.pytensor_compiles/compiledir_2024.10.16--21.29.11_0/tmp3h3dgfdt/mcc10678a3ffa5a8eb77749484490f060b9c558ac3436589374b5876c87c6e834.so'
relocations:
  - { offsetInCU: 0x26, offset: 0x26, size: 0x8, addend: 0x0, symName: _PyInit_mcc10678a3ffa5a8eb77749484490f060b9c558ac3436589374b5876c87c6e834, symObjAddr: 0x0, symBinAddr: 0x41E8, symSize: 0x224 }
  - { offsetInCU: 0x53, offset: 0x53, size: 0x8, addend: 0x0, symName: __ZL11PyArray_API, symObjAddr: 0x2CD60, symBinAddr: 0xC140, symSize: 0x0 }
  - { offsetInCU: 0x73, offset: 0x73, size: 0x8, addend: 0x0, symName: __ZL9moduledef, symObjAddr: 0x3BE0, symBinAddr: 0xC098, symSize: 0x0 }
  - { offsetInCU: 0xC86, offset: 0xC86, size: 0x8, addend: 0x0, symName: __ZL9MyMethods, symObjAddr: 0x3C48, symBinAddr: 0xC100, symSize: 0x0 }
  - { offsetInCU: 0x20BF, offset: 0x20BF, size: 0x8, addend: 0x0, symName: __ZNSt3__111__sift_downB8un170006INS_17_ClassicAlgPolicyERNS_6__lessIvvEENS_16reverse_iteratorINS_11__wrap_iterIPNS_4pairIiiEEEEEEEEvT1_OT0_NS_15iterator_traitsISC_E15difference_typeESC_, symObjAddr: 0x1E68, symBinAddr: 0x6050, symSize: 0x130 }
  - { offsetInCU: 0x23D3, offset: 0x23D3, size: 0x8, addend: 0x0, symName: __ZNSt3__111__introsortINS_17_ClassicAlgPolicyERNS_6__lessIvvEENS_16reverse_iteratorINS_11__wrap_iterIPNS_4pairIiiEEEEEELb0EEEvT1_SC_T0_NS_15iterator_traitsISC_E15difference_typeEb, symObjAddr: 0x20F4, symBinAddr: 0x62DC, symSize: 0x760 }
  - { offsetInCU: 0x3667, offset: 0x3667, size: 0x8, addend: 0x0, symName: __ZNSt3__131__partition_with_equals_on_leftB8un170006INS_17_ClassicAlgPolicyENS_16reverse_iteratorINS_11__wrap_iterIPNS_4pairIiiEEEEEERNS_6__lessIvvEEEET0_SC_SC_T1_, symObjAddr: 0x29E8, symBinAddr: 0x6BD0, symSize: 0x18C }
  - { offsetInCU: 0x39E5, offset: 0x39E5, size: 0x8, addend: 0x0, symName: __ZNSt3__132__partition_with_equals_on_rightB8un170006INS_17_ClassicAlgPolicyENS_16reverse_iteratorINS_11__wrap_iterIPNS_4pairIiiEEEEEERNS_6__lessIvvEEEENS4_IT0_bEESC_SC_T1_, symObjAddr: 0x2B74, symBinAddr: 0x6D5C, symSize: 0x150 }
  - { offsetInCU: 0x3DFB, offset: 0x3DFB, size: 0x8, addend: 0x0, symName: __ZNSt3__127__insertion_sort_incompleteB8un170006INS_17_ClassicAlgPolicyERNS_6__lessIvvEENS_16reverse_iteratorINS_11__wrap_iterIPNS_4pairIiiEEEEEEEEbT1_SC_T0_, symObjAddr: 0x2CC4, symBinAddr: 0x6EAC, symSize: 0x334 }
  - { offsetInCU: 0x5A5E, offset: 0x5A5E, size: 0x8, addend: 0x0, symName: __ZNSt3__119__partial_sort_implB8un170006INS_17_ClassicAlgPolicyERNS_6__lessIvvEENS_16reverse_iteratorINS_11__wrap_iterIPNS_4pairIiiEEEEEESB_EET1_SC_SC_T2_OT0_, symObjAddr: 0x1CFC, symBinAddr: 0x5EE4, symSize: 0x16C }
  - { offsetInCU: 0x5DB1, offset: 0x5DB1, size: 0x8, addend: 0x0, symName: __ZNSt3__110__pop_heapB8un170006INS_17_ClassicAlgPolicyENS_6__lessIvvEENS_16reverse_iteratorINS_11__wrap_iterIPNS_4pairIiiEEEEEEEEvT1_SB_RT0_NS_15iterator_traitsISB_E15difference_typeE, symObjAddr: 0x1F98, symBinAddr: 0x6180, symSize: 0x15C }
  - { offsetInCU: 0x664C, offset: 0x664C, size: 0x8, addend: 0x0, symName: __ZNSt3__17__sort3B8un170006INS_17_ClassicAlgPolicyERNS_6__lessIvvEENS_16reverse_iteratorINS_11__wrap_iterIPNS_4pairIiiEEEEEEEEjT1_SC_SC_T0_, symObjAddr: 0x2854, symBinAddr: 0x6A3C, symSize: 0x194 }
  - { offsetInCU: 0x66B6, offset: 0x66B6, size: 0x8, addend: 0x0, symName: __ZNSt3__17__sort3B8un170006INS_17_ClassicAlgPolicyERNS_6__lessIvvEENS_16reverse_iteratorINS_11__wrap_iterIPNS_4pairIiiEEEEEEEEjT1_SC_SC_T0_, symObjAddr: 0x2854, symBinAddr: 0x6A3C, symSize: 0x194 }
  - { offsetInCU: 0x66DC, offset: 0x66DC, size: 0x8, addend: 0x0, symName: __ZNSt3__17__sort3B8un170006INS_17_ClassicAlgPolicyERNS_6__lessIvvEENS_16reverse_iteratorINS_11__wrap_iterIPNS_4pairIiiEEEEEEEEjT1_SC_SC_T0_, symObjAddr: 0x2854, symBinAddr: 0x6A3C, symSize: 0x194 }
  - { offsetInCU: 0x6AFA, offset: 0x6AFA, size: 0x8, addend: 0x0, symName: __ZNSt3__17__sort5B8un170006INS_17_ClassicAlgPolicyERNS_6__lessIvvEENS_16reverse_iteratorINS_11__wrap_iterIPNS_4pairIiiEEEEEEEEvT1_SC_SC_SC_SC_T0_, symObjAddr: 0x2FF8, symBinAddr: 0x71E0, symSize: 0x21C }
  - { offsetInCU: 0x9ABC, offset: 0x9ABC, size: 0x8, addend: 0x0, symName: _PyInit_mcc10678a3ffa5a8eb77749484490f060b9c558ac3436589374b5876c87c6e834, symObjAddr: 0x0, symBinAddr: 0x41E8, symSize: 0x224 }
  - { offsetInCU: 0x9DA1, offset: 0x9DA1, size: 0x8, addend: 0x0, symName: __ZL11instantiateP7_objectS0_, symObjAddr: 0x224, symBinAddr: 0x440C, symSize: 0x17C }
  - { offsetInCU: 0xA0C6, offset: 0xA0C6, size: 0x8, addend: 0x0, symName: __ZL95__struct_compiled_op_mcc10678a3ffa5a8eb77749484490f060b9c558ac3436589374b5876c87c6e834_executorPN12_GLOBAL__N_186__struct_compiled_op_mcc10678a3ffa5a8eb77749484490f060b9c558ac3436589374b5876c87c6e834E, symObjAddr: 0x3A0, symBinAddr: 0x4588, symSize: 0x1854 }
  - { offsetInCU: 0xA13B, offset: 0xA13B, size: 0x8, addend: 0x0, symName: __ZL11instantiateP7_objectS0_.cold.1, symObjAddr: 0x3214, symBinAddr: 0x73FC, symSize: 0x28 }
  - { offsetInCU: 0xA153, offset: 0xA153, size: 0x8, addend: 0x0, symName: __ZL11instantiateP7_objectS0_.cold.2, symObjAddr: 0x323C, symBinAddr: 0x7424, symSize: 0x28 }
  - { offsetInCU: 0xA909, offset: 0xA909, size: 0x8, addend: 0x0, symName: __ZL95__struct_compiled_op_mcc10678a3ffa5a8eb77749484490f060b9c558ac3436589374b5876c87c6e834_executorPN12_GLOBAL__N_186__struct_compiled_op_mcc10678a3ffa5a8eb77749484490f060b9c558ac3436589374b5876c87c6e834E, symObjAddr: 0x3A0, symBinAddr: 0x4588, symSize: 0x1854 }
  - { offsetInCU: 0xBCAA, offset: 0xBCAA, size: 0x8, addend: 0x0, symName: __ZL97__struct_compiled_op_mcc10678a3ffa5a8eb77749484490f060b9c558ac3436589374b5876c87c6e834_destructorP7_object, symObjAddr: 0x1BF4, symBinAddr: 0x5DDC, symSize: 0x108 }
  - { offsetInCU: 0xBCD6, offset: 0xBCD6, size: 0x8, addend: 0x0, symName: __ZL95__struct_compiled_op_mcc10678a3ffa5a8eb77749484490f060b9c558ac3436589374b5876c87c6e834_executorPN12_GLOBAL__N_186__struct_compiled_op_mcc10678a3ffa5a8eb77749484490f060b9c558ac3436589374b5876c87c6e834E.cold.1, symObjAddr: 0x3264, symBinAddr: 0x744C, symSize: 0x28 }
  - { offsetInCU: 0xBD04, offset: 0xBD04, size: 0x8, addend: 0x0, symName: __ZL95__struct_compiled_op_mcc10678a3ffa5a8eb77749484490f060b9c558ac3436589374b5876c87c6e834_executorPN12_GLOBAL__N_186__struct_compiled_op_mcc10678a3ffa5a8eb77749484490f060b9c558ac3436589374b5876c87c6e834E.cold.5, symObjAddr: 0x3304, symBinAddr: 0x74EC, symSize: 0x28 }
  - { offsetInCU: 0xBD32, offset: 0xBD32, size: 0x8, addend: 0x0, symName: __ZL95__struct_compiled_op_mcc10678a3ffa5a8eb77749484490f060b9c558ac3436589374b5876c87c6e834_executorPN12_GLOBAL__N_186__struct_compiled_op_mcc10678a3ffa5a8eb77749484490f060b9c558ac3436589374b5876c87c6e834E.cold.7, symObjAddr: 0x3354, symBinAddr: 0x753C, symSize: 0x28 }
  - { offsetInCU: 0xBD77, offset: 0xBD77, size: 0x8, addend: 0x0, symName: __ZL95__struct_compiled_op_mcc10678a3ffa5a8eb77749484490f060b9c558ac3436589374b5876c87c6e834_executorPN12_GLOBAL__N_186__struct_compiled_op_mcc10678a3ffa5a8eb77749484490f060b9c558ac3436589374b5876c87c6e834E.cold.2, symObjAddr: 0x328C, symBinAddr: 0x7474, symSize: 0x28 }
  - { offsetInCU: 0xBDA5, offset: 0xBDA5, size: 0x8, addend: 0x0, symName: __ZL95__struct_compiled_op_mcc10678a3ffa5a8eb77749484490f060b9c558ac3436589374b5876c87c6e834_executorPN12_GLOBAL__N_186__struct_compiled_op_mcc10678a3ffa5a8eb77749484490f060b9c558ac3436589374b5876c87c6e834E.cold.3, symObjAddr: 0x32B4, symBinAddr: 0x749C, symSize: 0x28 }
  - { offsetInCU: 0xBDD3, offset: 0xBDD3, size: 0x8, addend: 0x0, symName: __ZL95__struct_compiled_op_mcc10678a3ffa5a8eb77749484490f060b9c558ac3436589374b5876c87c6e834_executorPN12_GLOBAL__N_186__struct_compiled_op_mcc10678a3ffa5a8eb77749484490f060b9c558ac3436589374b5876c87c6e834E.cold.4, symObjAddr: 0x32DC, symBinAddr: 0x74C4, symSize: 0x28 }
  - { offsetInCU: 0xBE01, offset: 0xBE01, size: 0x8, addend: 0x0, symName: __ZL95__struct_compiled_op_mcc10678a3ffa5a8eb77749484490f060b9c558ac3436589374b5876c87c6e834_executorPN12_GLOBAL__N_186__struct_compiled_op_mcc10678a3ffa5a8eb77749484490f060b9c558ac3436589374b5876c87c6e834E.cold.6, symObjAddr: 0x332C, symBinAddr: 0x7514, symSize: 0x28 }
  - { offsetInCU: 0xBE2F, offset: 0xBE2F, size: 0x8, addend: 0x0, symName: __ZL95__struct_compiled_op_mcc10678a3ffa5a8eb77749484490f060b9c558ac3436589374b5876c87c6e834_executorPN12_GLOBAL__N_186__struct_compiled_op_mcc10678a3ffa5a8eb77749484490f060b9c558ac3436589374b5876c87c6e834E.cold.8, symObjAddr: 0x337C, symBinAddr: 0x7564, symSize: 0x28 }
  - { offsetInCU: 0xBE6E, offset: 0xBE6E, size: 0x8, addend: 0x0, symName: __ZL95__struct_compiled_op_mcc10678a3ffa5a8eb77749484490f060b9c558ac3436589374b5876c87c6e834_executorPN12_GLOBAL__N_186__struct_compiled_op_mcc10678a3ffa5a8eb77749484490f060b9c558ac3436589374b5876c87c6e834E.cold.9, symObjAddr: 0x33A4, symBinAddr: 0x758C, symSize: 0x28 }
  - { offsetInCU: 0xBE9C, offset: 0xBE9C, size: 0x8, addend: 0x0, symName: __ZL95__struct_compiled_op_mcc10678a3ffa5a8eb77749484490f060b9c558ac3436589374b5876c87c6e834_executorPN12_GLOBAL__N_186__struct_compiled_op_mcc10678a3ffa5a8eb77749484490f060b9c558ac3436589374b5876c87c6e834E.cold.10, symObjAddr: 0x33CC, symBinAddr: 0x75B4, symSize: 0x28 }
  - { offsetInCU: 0xBECA, offset: 0xBECA, size: 0x8, addend: 0x0, symName: __ZL95__struct_compiled_op_mcc10678a3ffa5a8eb77749484490f060b9c558ac3436589374b5876c87c6e834_executorPN12_GLOBAL__N_186__struct_compiled_op_mcc10678a3ffa5a8eb77749484490f060b9c558ac3436589374b5876c87c6e834E.cold.11, symObjAddr: 0x33F4, symBinAddr: 0x75DC, symSize: 0x28 }
  - { offsetInCU: 0xBFDA, offset: 0xBFDA, size: 0x8, addend: 0x0, symName: __ZL97__struct_compiled_op_mcc10678a3ffa5a8eb77749484490f060b9c558ac3436589374b5876c87c6e834_destructorP7_object, symObjAddr: 0x1BF4, symBinAddr: 0x5DDC, symSize: 0x108 }
...
