---
triple:          'arm64-apple-darwin'
binary-path:     '/Users/paulosoares/personal/phd/code/tomcat-coordination/.pytensor_compiles/compiledir_2024.10.16--21.28.53_1/tmpaas8rxyc/m241cdca6a752782bd29b66fa406289aa8de0995efa0d37e8927b866b18ad9721.so'
relocations:
  - { offsetInCU: 0x26, offset: 0x26, size: 0x8, addend: 0x0, symName: _PyInit_m241cdca6a752782bd29b66fa406289aa8de0995efa0d37e8927b866b18ad9721, symObjAddr: 0x0, symBinAddr: 0xF48, symSize: 0x224 }
  - { offsetInCU: 0x53, offset: 0x53, size: 0x8, addend: 0x0, symName: __ZL11PyArray_API, symObjAddr: 0x28AB0, symBinAddr: 0x8140, symSize: 0x0 }
  - { offsetInCU: 0x73, offset: 0x73, size: 0x8, addend: 0x0, symName: __ZL9moduledef, symObjAddr: 0x2E80, symBinAddr: 0x8098, symSize: 0x0 }
  - { offsetInCU: 0xC86, offset: 0xC86, size: 0x8, addend: 0x0, symName: __ZL9MyMethods, symObjAddr: 0x2EE8, symBinAddr: 0x8100, symSize: 0x0 }
  - { offsetInCU: 0x20BF, offset: 0x20BF, size: 0x8, addend: 0x0, symName: __ZNSt3__111__sift_downB8un170006INS_17_ClassicAlgPolicyERNS_6__lessIvvEENS_16reverse_iteratorINS_11__wrap_iterIPNS_4pairIiiEEEEEEEEvT1_OT0_NS_15iterator_traitsISC_E15difference_typeESC_, symObjAddr: 0x13D4, symBinAddr: 0x231C, symSize: 0x130 }
  - { offsetInCU: 0x23D3, offset: 0x23D3, size: 0x8, addend: 0x0, symName: __ZNSt3__111__introsortINS_17_ClassicAlgPolicyERNS_6__lessIvvEENS_16reverse_iteratorINS_11__wrap_iterIPNS_4pairIiiEEEEEELb0EEEvT1_SC_T0_NS_15iterator_traitsISC_E15difference_typeEb, symObjAddr: 0x1660, symBinAddr: 0x25A8, symSize: 0x760 }
  - { offsetInCU: 0x3667, offset: 0x3667, size: 0x8, addend: 0x0, symName: __ZNSt3__131__partition_with_equals_on_leftB8un170006INS_17_ClassicAlgPolicyENS_16reverse_iteratorINS_11__wrap_iterIPNS_4pairIiiEEEEEERNS_6__lessIvvEEEET0_SC_SC_T1_, symObjAddr: 0x1F54, symBinAddr: 0x2E9C, symSize: 0x18C }
  - { offsetInCU: 0x39E5, offset: 0x39E5, size: 0x8, addend: 0x0, symName: __ZNSt3__132__partition_with_equals_on_rightB8un170006INS_17_ClassicAlgPolicyENS_16reverse_iteratorINS_11__wrap_iterIPNS_4pairIiiEEEEEERNS_6__lessIvvEEEENS4_IT0_bEESC_SC_T1_, symObjAddr: 0x20E0, symBinAddr: 0x3028, symSize: 0x150 }
  - { offsetInCU: 0x3DFB, offset: 0x3DFB, size: 0x8, addend: 0x0, symName: __ZNSt3__127__insertion_sort_incompleteB8un170006INS_17_ClassicAlgPolicyERNS_6__lessIvvEENS_16reverse_iteratorINS_11__wrap_iterIPNS_4pairIiiEEEEEEEEbT1_SC_T0_, symObjAddr: 0x2230, symBinAddr: 0x3178, symSize: 0x334 }
  - { offsetInCU: 0x5A5E, offset: 0x5A5E, size: 0x8, addend: 0x0, symName: __ZNSt3__119__partial_sort_implB8un170006INS_17_ClassicAlgPolicyERNS_6__lessIvvEENS_16reverse_iteratorINS_11__wrap_iterIPNS_4pairIiiEEEEEESB_EET1_SC_SC_T2_OT0_, symObjAddr: 0x1268, symBinAddr: 0x21B0, symSize: 0x16C }
  - { offsetInCU: 0x5DB1, offset: 0x5DB1, size: 0x8, addend: 0x0, symName: __ZNSt3__110__pop_heapB8un170006INS_17_ClassicAlgPolicyENS_6__lessIvvEENS_16reverse_iteratorINS_11__wrap_iterIPNS_4pairIiiEEEEEEEEvT1_SB_RT0_NS_15iterator_traitsISB_E15difference_typeE, symObjAddr: 0x1504, symBinAddr: 0x244C, symSize: 0x15C }
  - { offsetInCU: 0x664C, offset: 0x664C, size: 0x8, addend: 0x0, symName: __ZNSt3__17__sort3B8un170006INS_17_ClassicAlgPolicyERNS_6__lessIvvEENS_16reverse_iteratorINS_11__wrap_iterIPNS_4pairIiiEEEEEEEEjT1_SC_SC_T0_, symObjAddr: 0x1DC0, symBinAddr: 0x2D08, symSize: 0x194 }
  - { offsetInCU: 0x66B6, offset: 0x66B6, size: 0x8, addend: 0x0, symName: __ZNSt3__17__sort3B8un170006INS_17_ClassicAlgPolicyERNS_6__lessIvvEENS_16reverse_iteratorINS_11__wrap_iterIPNS_4pairIiiEEEEEEEEjT1_SC_SC_T0_, symObjAddr: 0x1DC0, symBinAddr: 0x2D08, symSize: 0x194 }
  - { offsetInCU: 0x66DC, offset: 0x66DC, size: 0x8, addend: 0x0, symName: __ZNSt3__17__sort3B8un170006INS_17_ClassicAlgPolicyERNS_6__lessIvvEENS_16reverse_iteratorINS_11__wrap_iterIPNS_4pairIiiEEEEEEEEjT1_SC_SC_T0_, symObjAddr: 0x1DC0, symBinAddr: 0x2D08, symSize: 0x194 }
  - { offsetInCU: 0x6AFA, offset: 0x6AFA, size: 0x8, addend: 0x0, symName: __ZNSt3__17__sort5B8un170006INS_17_ClassicAlgPolicyERNS_6__lessIvvEENS_16reverse_iteratorINS_11__wrap_iterIPNS_4pairIiiEEEEEEEEvT1_SC_SC_SC_SC_T0_, symObjAddr: 0x2564, symBinAddr: 0x34AC, symSize: 0x21C }
  - { offsetInCU: 0x9A40, offset: 0x9A40, size: 0x8, addend: 0x0, symName: _PyInit_m241cdca6a752782bd29b66fa406289aa8de0995efa0d37e8927b866b18ad9721, symObjAddr: 0x0, symBinAddr: 0xF48, symSize: 0x224 }
  - { offsetInCU: 0x9CC5, offset: 0x9CC5, size: 0x8, addend: 0x0, symName: __ZL11instantiateP7_objectS0_, symObjAddr: 0x224, symBinAddr: 0x116C, symSize: 0x120 }
  - { offsetInCU: 0x9EB1, offset: 0x9EB1, size: 0x8, addend: 0x0, symName: __ZL95__struct_compiled_op_m241cdca6a752782bd29b66fa406289aa8de0995efa0d37e8927b866b18ad9721_executorPN12_GLOBAL__N_186__struct_compiled_op_m241cdca6a752782bd29b66fa406289aa8de0995efa0d37e8927b866b18ad9721E, symObjAddr: 0x344, symBinAddr: 0x128C, symSize: 0xE8C }
  - { offsetInCU: 0x9F26, offset: 0x9F26, size: 0x8, addend: 0x0, symName: __ZL11instantiateP7_objectS0_.cold.1, symObjAddr: 0x2780, symBinAddr: 0x36C8, symSize: 0x28 }
  - { offsetInCU: 0x9F3E, offset: 0x9F3E, size: 0x8, addend: 0x0, symName: __ZL11instantiateP7_objectS0_.cold.2, symObjAddr: 0x27A8, symBinAddr: 0x36F0, symSize: 0x28 }
  - { offsetInCU: 0xA39D, offset: 0xA39D, size: 0x8, addend: 0x0, symName: __ZL95__struct_compiled_op_m241cdca6a752782bd29b66fa406289aa8de0995efa0d37e8927b866b18ad9721_executorPN12_GLOBAL__N_186__struct_compiled_op_m241cdca6a752782bd29b66fa406289aa8de0995efa0d37e8927b866b18ad9721E, symObjAddr: 0x344, symBinAddr: 0x128C, symSize: 0xE8C }
  - { offsetInCU: 0xAF9A, offset: 0xAF9A, size: 0x8, addend: 0x0, symName: __ZL95__struct_compiled_op_m241cdca6a752782bd29b66fa406289aa8de0995efa0d37e8927b866b18ad9721_executorPN12_GLOBAL__N_186__struct_compiled_op_m241cdca6a752782bd29b66fa406289aa8de0995efa0d37e8927b866b18ad9721E.cold.2, symObjAddr: 0x27F8, symBinAddr: 0x3740, symSize: 0x28 }
  - { offsetInCU: 0xAFD9, offset: 0xAFD9, size: 0x8, addend: 0x0, symName: __ZL95__struct_compiled_op_m241cdca6a752782bd29b66fa406289aa8de0995efa0d37e8927b866b18ad9721_executorPN12_GLOBAL__N_186__struct_compiled_op_m241cdca6a752782bd29b66fa406289aa8de0995efa0d37e8927b866b18ad9721E.cold.1, symObjAddr: 0x27D0, symBinAddr: 0x3718, symSize: 0x28 }
  - { offsetInCU: 0xB007, offset: 0xB007, size: 0x8, addend: 0x0, symName: __ZL95__struct_compiled_op_m241cdca6a752782bd29b66fa406289aa8de0995efa0d37e8927b866b18ad9721_executorPN12_GLOBAL__N_186__struct_compiled_op_m241cdca6a752782bd29b66fa406289aa8de0995efa0d37e8927b866b18ad9721E.cold.3, symObjAddr: 0x2820, symBinAddr: 0x3768, symSize: 0x28 }
  - { offsetInCU: 0xB035, offset: 0xB035, size: 0x8, addend: 0x0, symName: __ZL95__struct_compiled_op_m241cdca6a752782bd29b66fa406289aa8de0995efa0d37e8927b866b18ad9721_executorPN12_GLOBAL__N_186__struct_compiled_op_m241cdca6a752782bd29b66fa406289aa8de0995efa0d37e8927b866b18ad9721E.cold.4, symObjAddr: 0x2848, symBinAddr: 0x3790, symSize: 0x28 }
  - { offsetInCU: 0xB063, offset: 0xB063, size: 0x8, addend: 0x0, symName: __ZL95__struct_compiled_op_m241cdca6a752782bd29b66fa406289aa8de0995efa0d37e8927b866b18ad9721_executorPN12_GLOBAL__N_186__struct_compiled_op_m241cdca6a752782bd29b66fa406289aa8de0995efa0d37e8927b866b18ad9721E.cold.5, symObjAddr: 0x2870, symBinAddr: 0x37B8, symSize: 0x28 }
  - { offsetInCU: 0xB091, offset: 0xB091, size: 0x8, addend: 0x0, symName: __ZL95__struct_compiled_op_m241cdca6a752782bd29b66fa406289aa8de0995efa0d37e8927b866b18ad9721_executorPN12_GLOBAL__N_186__struct_compiled_op_m241cdca6a752782bd29b66fa406289aa8de0995efa0d37e8927b866b18ad9721E.cold.6, symObjAddr: 0x2898, symBinAddr: 0x37E0, symSize: 0x28 }
  - { offsetInCU: 0xB0BF, offset: 0xB0BF, size: 0x8, addend: 0x0, symName: __ZL95__struct_compiled_op_m241cdca6a752782bd29b66fa406289aa8de0995efa0d37e8927b866b18ad9721_executorPN12_GLOBAL__N_186__struct_compiled_op_m241cdca6a752782bd29b66fa406289aa8de0995efa0d37e8927b866b18ad9721E.cold.7, symObjAddr: 0x28C0, symBinAddr: 0x3808, symSize: 0x28 }
  - { offsetInCU: 0xB183, offset: 0xB183, size: 0x8, addend: 0x0, symName: __ZL97__struct_compiled_op_m241cdca6a752782bd29b66fa406289aa8de0995efa0d37e8927b866b18ad9721_destructorP7_object, symObjAddr: 0x11D0, symBinAddr: 0x2118, symSize: 0x98 }
...
