---
triple:          'arm64-apple-darwin'
binary-path:     '/Users/paulosoares/personal/phd/code/tomcat-coordination/.pytensor_compiles/compiledir_2024.10.16--21.29.11_0/tmpgmbxu1i5/md27c715e1ace0a5c7b3b25847ccc6a0a22317092cddc613a4f90663b70eae18a.so'
relocations:
  - { offsetInCU: 0x26, offset: 0x26, size: 0x8, addend: 0x0, symName: _PyInit_md27c715e1ace0a5c7b3b25847ccc6a0a22317092cddc613a4f90663b70eae18a, symObjAddr: 0x0, symBinAddr: 0x2C0C, symSize: 0x224 }
  - { offsetInCU: 0x53, offset: 0x53, size: 0x8, addend: 0x0, symName: __ZL11PyArray_API, symObjAddr: 0xEAF0, symBinAddr: 0x8140, symSize: 0x0 }
  - { offsetInCU: 0x73, offset: 0x73, size: 0x8, addend: 0x0, symName: __ZL9moduledef, symObjAddr: 0x11C0, symBinAddr: 0x8098, symSize: 0x0 }
  - { offsetInCU: 0xC86, offset: 0xC86, size: 0x8, addend: 0x0, symName: __ZL9MyMethods, symObjAddr: 0x1228, symBinAddr: 0x8100, symSize: 0x0 }
  - { offsetInCU: 0x3B8B, offset: 0x3B8B, size: 0x8, addend: 0x0, symName: _PyInit_md27c715e1ace0a5c7b3b25847ccc6a0a22317092cddc613a4f90663b70eae18a, symObjAddr: 0x0, symBinAddr: 0x2C0C, symSize: 0x224 }
  - { offsetInCU: 0x3E09, offset: 0x3E09, size: 0x8, addend: 0x0, symName: __ZL11instantiateP7_objectS0_, symObjAddr: 0x224, symBinAddr: 0x2E30, symSize: 0x138 }
  - { offsetInCU: 0x401D, offset: 0x401D, size: 0x8, addend: 0x0, symName: __ZL95__struct_compiled_op_md27c715e1ace0a5c7b3b25847ccc6a0a22317092cddc613a4f90663b70eae18a_executorPN12_GLOBAL__N_186__struct_compiled_op_md27c715e1ace0a5c7b3b25847ccc6a0a22317092cddc613a4f90663b70eae18aE, symObjAddr: 0x35C, symBinAddr: 0x2F68, symSize: 0x6D0 }
  - { offsetInCU: 0x407B, offset: 0x407B, size: 0x8, addend: 0x0, symName: __ZL11instantiateP7_objectS0_.cold.1, symObjAddr: 0xAE0, symBinAddr: 0x36EC, symSize: 0x28 }
  - { offsetInCU: 0x4092, offset: 0x4092, size: 0x8, addend: 0x0, symName: __ZL11instantiateP7_objectS0_.cold.2, symObjAddr: 0xB08, symBinAddr: 0x3714, symSize: 0x28 }
  - { offsetInCU: 0x42F4, offset: 0x42F4, size: 0x8, addend: 0x0, symName: __ZL95__struct_compiled_op_md27c715e1ace0a5c7b3b25847ccc6a0a22317092cddc613a4f90663b70eae18a_executorPN12_GLOBAL__N_186__struct_compiled_op_md27c715e1ace0a5c7b3b25847ccc6a0a22317092cddc613a4f90663b70eae18aE, symObjAddr: 0x35C, symBinAddr: 0x2F68, symSize: 0x6D0 }
  - { offsetInCU: 0x4B14, offset: 0x4B14, size: 0x8, addend: 0x0, symName: __ZL97__struct_compiled_op_md27c715e1ace0a5c7b3b25847ccc6a0a22317092cddc613a4f90663b70eae18a_destructorP7_object, symObjAddr: 0xA2C, symBinAddr: 0x3638, symSize: 0xB4 }
  - { offsetInCU: 0x4B1E, offset: 0x4B1E, size: 0x8, addend: 0x0, symName: __ZL95__struct_compiled_op_md27c715e1ace0a5c7b3b25847ccc6a0a22317092cddc613a4f90663b70eae18a_executorPN12_GLOBAL__N_186__struct_compiled_op_md27c715e1ace0a5c7b3b25847ccc6a0a22317092cddc613a4f90663b70eae18aE.cold.2, symObjAddr: 0xB58, symBinAddr: 0x3764, symSize: 0x28 }
  - { offsetInCU: 0x4B9A, offset: 0x4B9A, size: 0x8, addend: 0x0, symName: __ZL95__struct_compiled_op_md27c715e1ace0a5c7b3b25847ccc6a0a22317092cddc613a4f90663b70eae18a_executorPN12_GLOBAL__N_186__struct_compiled_op_md27c715e1ace0a5c7b3b25847ccc6a0a22317092cddc613a4f90663b70eae18aE.cold.5, symObjAddr: 0xBD0, symBinAddr: 0x37DC, symSize: 0x28 }
  - { offsetInCU: 0x4BC7, offset: 0x4BC7, size: 0x8, addend: 0x0, symName: __ZL95__struct_compiled_op_md27c715e1ace0a5c7b3b25847ccc6a0a22317092cddc613a4f90663b70eae18a_executorPN12_GLOBAL__N_186__struct_compiled_op_md27c715e1ace0a5c7b3b25847ccc6a0a22317092cddc613a4f90663b70eae18aE.cold.1, symObjAddr: 0xB30, symBinAddr: 0x373C, symSize: 0x28 }
  - { offsetInCU: 0x4BF4, offset: 0x4BF4, size: 0x8, addend: 0x0, symName: __ZL95__struct_compiled_op_md27c715e1ace0a5c7b3b25847ccc6a0a22317092cddc613a4f90663b70eae18a_executorPN12_GLOBAL__N_186__struct_compiled_op_md27c715e1ace0a5c7b3b25847ccc6a0a22317092cddc613a4f90663b70eae18aE.cold.3, symObjAddr: 0xB80, symBinAddr: 0x378C, symSize: 0x28 }
  - { offsetInCU: 0x4C21, offset: 0x4C21, size: 0x8, addend: 0x0, symName: __ZL95__struct_compiled_op_md27c715e1ace0a5c7b3b25847ccc6a0a22317092cddc613a4f90663b70eae18a_executorPN12_GLOBAL__N_186__struct_compiled_op_md27c715e1ace0a5c7b3b25847ccc6a0a22317092cddc613a4f90663b70eae18aE.cold.4, symObjAddr: 0xBA8, symBinAddr: 0x37B4, symSize: 0x28 }
  - { offsetInCU: 0x4C4E, offset: 0x4C4E, size: 0x8, addend: 0x0, symName: __ZL95__struct_compiled_op_md27c715e1ace0a5c7b3b25847ccc6a0a22317092cddc613a4f90663b70eae18a_executorPN12_GLOBAL__N_186__struct_compiled_op_md27c715e1ace0a5c7b3b25847ccc6a0a22317092cddc613a4f90663b70eae18aE.cold.6, symObjAddr: 0xBF8, symBinAddr: 0x3804, symSize: 0x28 }
  - { offsetInCU: 0x4C7B, offset: 0x4C7B, size: 0x8, addend: 0x0, symName: __ZL95__struct_compiled_op_md27c715e1ace0a5c7b3b25847ccc6a0a22317092cddc613a4f90663b70eae18a_executorPN12_GLOBAL__N_186__struct_compiled_op_md27c715e1ace0a5c7b3b25847ccc6a0a22317092cddc613a4f90663b70eae18aE.cold.7, symObjAddr: 0xC20, symBinAddr: 0x382C, symSize: 0x28 }
  - { offsetInCU: 0x4CA8, offset: 0x4CA8, size: 0x8, addend: 0x0, symName: __ZL95__struct_compiled_op_md27c715e1ace0a5c7b3b25847ccc6a0a22317092cddc613a4f90663b70eae18a_executorPN12_GLOBAL__N_186__struct_compiled_op_md27c715e1ace0a5c7b3b25847ccc6a0a22317092cddc613a4f90663b70eae18aE.cold.8, symObjAddr: 0xC48, symBinAddr: 0x3854, symSize: 0x28 }
  - { offsetInCU: 0x4CD5, offset: 0x4CD5, size: 0x8, addend: 0x0, symName: __ZL95__struct_compiled_op_md27c715e1ace0a5c7b3b25847ccc6a0a22317092cddc613a4f90663b70eae18a_executorPN12_GLOBAL__N_186__struct_compiled_op_md27c715e1ace0a5c7b3b25847ccc6a0a22317092cddc613a4f90663b70eae18aE.cold.9, symObjAddr: 0xC70, symBinAddr: 0x387C, symSize: 0x28 }
  - { offsetInCU: 0x4D02, offset: 0x4D02, size: 0x8, addend: 0x0, symName: __ZL95__struct_compiled_op_md27c715e1ace0a5c7b3b25847ccc6a0a22317092cddc613a4f90663b70eae18a_executorPN12_GLOBAL__N_186__struct_compiled_op_md27c715e1ace0a5c7b3b25847ccc6a0a22317092cddc613a4f90663b70eae18aE.cold.10, symObjAddr: 0xC98, symBinAddr: 0x38A4, symSize: 0x28 }
  - { offsetInCU: 0x4DCD, offset: 0x4DCD, size: 0x8, addend: 0x0, symName: __ZL97__struct_compiled_op_md27c715e1ace0a5c7b3b25847ccc6a0a22317092cddc613a4f90663b70eae18a_destructorP7_object, symObjAddr: 0xA2C, symBinAddr: 0x3638, symSize: 0xB4 }
...
