---
triple:          'arm64-apple-darwin'
binary-path:     '/Users/paulosoares/personal/phd/code/tomcat-coordination/.pytensor_compiles/compiledir_2024.10.16--21.28.53_0/tmpsm5cgpym/mafba047653663e1b513f9c00c11839feb34f2ac931654d5fdb741676b3ec8cbe.so'
relocations:
  - { offsetInCU: 0x26, offset: 0x26, size: 0x8, addend: 0x0, symName: _PyInit_mafba047653663e1b513f9c00c11839feb34f2ac931654d5fdb741676b3ec8cbe, symObjAddr: 0x0, symBinAddr: 0x40AC, symSize: 0x224 }
  - { offsetInCU: 0x53, offset: 0x53, size: 0x8, addend: 0x0, symName: __ZL11PyArray_API, symObjAddr: 0x2D510, symBinAddr: 0xC140, symSize: 0x0 }
  - { offsetInCU: 0x73, offset: 0x73, size: 0x8, addend: 0x0, symName: __ZL9moduledef, symObjAddr: 0x3D20, symBinAddr: 0xC098, symSize: 0x0 }
  - { offsetInCU: 0xC86, offset: 0xC86, size: 0x8, addend: 0x0, symName: __ZL9MyMethods, symObjAddr: 0x3D88, symBinAddr: 0xC100, symSize: 0x0 }
  - { offsetInCU: 0x20BF, offset: 0x20BF, size: 0x8, addend: 0x0, symName: __ZNSt3__111__sift_downB8un170006INS_17_ClassicAlgPolicyERNS_6__lessIvvEENS_16reverse_iteratorINS_11__wrap_iterIPNS_4pairIiiEEEEEEEEvT1_OT0_NS_15iterator_traitsISC_E15difference_typeESC_, symObjAddr: 0x1F44, symBinAddr: 0x5FF0, symSize: 0x130 }
  - { offsetInCU: 0x23D3, offset: 0x23D3, size: 0x8, addend: 0x0, symName: __ZNSt3__111__introsortINS_17_ClassicAlgPolicyERNS_6__lessIvvEENS_16reverse_iteratorINS_11__wrap_iterIPNS_4pairIiiEEEEEELb0EEEvT1_SC_T0_NS_15iterator_traitsISC_E15difference_typeEb, symObjAddr: 0x21D0, symBinAddr: 0x627C, symSize: 0x760 }
  - { offsetInCU: 0x3667, offset: 0x3667, size: 0x8, addend: 0x0, symName: __ZNSt3__131__partition_with_equals_on_leftB8un170006INS_17_ClassicAlgPolicyENS_16reverse_iteratorINS_11__wrap_iterIPNS_4pairIiiEEEEEERNS_6__lessIvvEEEET0_SC_SC_T1_, symObjAddr: 0x2AC4, symBinAddr: 0x6B70, symSize: 0x18C }
  - { offsetInCU: 0x39E5, offset: 0x39E5, size: 0x8, addend: 0x0, symName: __ZNSt3__132__partition_with_equals_on_rightB8un170006INS_17_ClassicAlgPolicyENS_16reverse_iteratorINS_11__wrap_iterIPNS_4pairIiiEEEEEERNS_6__lessIvvEEEENS4_IT0_bEESC_SC_T1_, symObjAddr: 0x2C50, symBinAddr: 0x6CFC, symSize: 0x150 }
  - { offsetInCU: 0x3DFB, offset: 0x3DFB, size: 0x8, addend: 0x0, symName: __ZNSt3__127__insertion_sort_incompleteB8un170006INS_17_ClassicAlgPolicyERNS_6__lessIvvEENS_16reverse_iteratorINS_11__wrap_iterIPNS_4pairIiiEEEEEEEEbT1_SC_T0_, symObjAddr: 0x2DA0, symBinAddr: 0x6E4C, symSize: 0x334 }
  - { offsetInCU: 0x5A5E, offset: 0x5A5E, size: 0x8, addend: 0x0, symName: __ZNSt3__119__partial_sort_implB8un170006INS_17_ClassicAlgPolicyERNS_6__lessIvvEENS_16reverse_iteratorINS_11__wrap_iterIPNS_4pairIiiEEEEEESB_EET1_SC_SC_T2_OT0_, symObjAddr: 0x1DD8, symBinAddr: 0x5E84, symSize: 0x16C }
  - { offsetInCU: 0x5DB1, offset: 0x5DB1, size: 0x8, addend: 0x0, symName: __ZNSt3__110__pop_heapB8un170006INS_17_ClassicAlgPolicyENS_6__lessIvvEENS_16reverse_iteratorINS_11__wrap_iterIPNS_4pairIiiEEEEEEEEvT1_SB_RT0_NS_15iterator_traitsISB_E15difference_typeE, symObjAddr: 0x2074, symBinAddr: 0x6120, symSize: 0x15C }
  - { offsetInCU: 0x664C, offset: 0x664C, size: 0x8, addend: 0x0, symName: __ZNSt3__17__sort3B8un170006INS_17_ClassicAlgPolicyERNS_6__lessIvvEENS_16reverse_iteratorINS_11__wrap_iterIPNS_4pairIiiEEEEEEEEjT1_SC_SC_T0_, symObjAddr: 0x2930, symBinAddr: 0x69DC, symSize: 0x194 }
  - { offsetInCU: 0x66B6, offset: 0x66B6, size: 0x8, addend: 0x0, symName: __ZNSt3__17__sort3B8un170006INS_17_ClassicAlgPolicyERNS_6__lessIvvEENS_16reverse_iteratorINS_11__wrap_iterIPNS_4pairIiiEEEEEEEEjT1_SC_SC_T0_, symObjAddr: 0x2930, symBinAddr: 0x69DC, symSize: 0x194 }
  - { offsetInCU: 0x66DC, offset: 0x66DC, size: 0x8, addend: 0x0, symName: __ZNSt3__17__sort3B8un170006INS_17_ClassicAlgPolicyERNS_6__lessIvvEENS_16reverse_iteratorINS_11__wrap_iterIPNS_4pairIiiEEEEEEEEjT1_SC_SC_T0_, symObjAddr: 0x2930, symBinAddr: 0x69DC, symSize: 0x194 }
  - { offsetInCU: 0x6AFA, offset: 0x6AFA, size: 0x8, addend: 0x0, symName: __ZNSt3__17__sort5B8un170006INS_17_ClassicAlgPolicyERNS_6__lessIvvEENS_16reverse_iteratorINS_11__wrap_iterIPNS_4pairIiiEEEEEEEEvT1_SC_SC_SC_SC_T0_, symObjAddr: 0x30D4, symBinAddr: 0x7180, symSize: 0x21C }
  - { offsetInCU: 0x9ABC, offset: 0x9ABC, size: 0x8, addend: 0x0, symName: _PyInit_mafba047653663e1b513f9c00c11839feb34f2ac931654d5fdb741676b3ec8cbe, symObjAddr: 0x0, symBinAddr: 0x40AC, symSize: 0x224 }
  - { offsetInCU: 0x9DA1, offset: 0x9DA1, size: 0x8, addend: 0x0, symName: __ZL11instantiateP7_objectS0_, symObjAddr: 0x224, symBinAddr: 0x42D0, symSize: 0x17C }
  - { offsetInCU: 0xA0C6, offset: 0xA0C6, size: 0x8, addend: 0x0, symName: __ZL95__struct_compiled_op_mafba047653663e1b513f9c00c11839feb34f2ac931654d5fdb741676b3ec8cbe_executorPN12_GLOBAL__N_186__struct_compiled_op_mafba047653663e1b513f9c00c11839feb34f2ac931654d5fdb741676b3ec8cbeE, symObjAddr: 0x3A0, symBinAddr: 0x444C, symSize: 0x1930 }
  - { offsetInCU: 0xA13B, offset: 0xA13B, size: 0x8, addend: 0x0, symName: __ZL11instantiateP7_objectS0_.cold.1, symObjAddr: 0x32F0, symBinAddr: 0x739C, symSize: 0x28 }
  - { offsetInCU: 0xA153, offset: 0xA153, size: 0x8, addend: 0x0, symName: __ZL11instantiateP7_objectS0_.cold.2, symObjAddr: 0x3318, symBinAddr: 0x73C4, symSize: 0x28 }
  - { offsetInCU: 0xA92D, offset: 0xA92D, size: 0x8, addend: 0x0, symName: __ZL95__struct_compiled_op_mafba047653663e1b513f9c00c11839feb34f2ac931654d5fdb741676b3ec8cbe_executorPN12_GLOBAL__N_186__struct_compiled_op_mafba047653663e1b513f9c00c11839feb34f2ac931654d5fdb741676b3ec8cbeE, symObjAddr: 0x3A0, symBinAddr: 0x444C, symSize: 0x1930 }
  - { offsetInCU: 0xBCE7, offset: 0xBCE7, size: 0x8, addend: 0x0, symName: __ZL97__struct_compiled_op_mafba047653663e1b513f9c00c11839feb34f2ac931654d5fdb741676b3ec8cbe_destructorP7_object, symObjAddr: 0x1CD0, symBinAddr: 0x5D7C, symSize: 0x108 }
  - { offsetInCU: 0xBD13, offset: 0xBD13, size: 0x8, addend: 0x0, symName: __ZL95__struct_compiled_op_mafba047653663e1b513f9c00c11839feb34f2ac931654d5fdb741676b3ec8cbe_executorPN12_GLOBAL__N_186__struct_compiled_op_mafba047653663e1b513f9c00c11839feb34f2ac931654d5fdb741676b3ec8cbeE.cold.1, symObjAddr: 0x3340, symBinAddr: 0x73EC, symSize: 0x28 }
  - { offsetInCU: 0xBD41, offset: 0xBD41, size: 0x8, addend: 0x0, symName: __ZL95__struct_compiled_op_mafba047653663e1b513f9c00c11839feb34f2ac931654d5fdb741676b3ec8cbe_executorPN12_GLOBAL__N_186__struct_compiled_op_mafba047653663e1b513f9c00c11839feb34f2ac931654d5fdb741676b3ec8cbeE.cold.5, symObjAddr: 0x33E0, symBinAddr: 0x748C, symSize: 0x28 }
  - { offsetInCU: 0xBD6F, offset: 0xBD6F, size: 0x8, addend: 0x0, symName: __ZL95__struct_compiled_op_mafba047653663e1b513f9c00c11839feb34f2ac931654d5fdb741676b3ec8cbe_executorPN12_GLOBAL__N_186__struct_compiled_op_mafba047653663e1b513f9c00c11839feb34f2ac931654d5fdb741676b3ec8cbeE.cold.7, symObjAddr: 0x3430, symBinAddr: 0x74DC, symSize: 0x28 }
  - { offsetInCU: 0xBDB4, offset: 0xBDB4, size: 0x8, addend: 0x0, symName: __ZL95__struct_compiled_op_mafba047653663e1b513f9c00c11839feb34f2ac931654d5fdb741676b3ec8cbe_executorPN12_GLOBAL__N_186__struct_compiled_op_mafba047653663e1b513f9c00c11839feb34f2ac931654d5fdb741676b3ec8cbeE.cold.2, symObjAddr: 0x3368, symBinAddr: 0x7414, symSize: 0x28 }
  - { offsetInCU: 0xBDE2, offset: 0xBDE2, size: 0x8, addend: 0x0, symName: __ZL95__struct_compiled_op_mafba047653663e1b513f9c00c11839feb34f2ac931654d5fdb741676b3ec8cbe_executorPN12_GLOBAL__N_186__struct_compiled_op_mafba047653663e1b513f9c00c11839feb34f2ac931654d5fdb741676b3ec8cbeE.cold.3, symObjAddr: 0x3390, symBinAddr: 0x743C, symSize: 0x28 }
  - { offsetInCU: 0xBE10, offset: 0xBE10, size: 0x8, addend: 0x0, symName: __ZL95__struct_compiled_op_mafba047653663e1b513f9c00c11839feb34f2ac931654d5fdb741676b3ec8cbe_executorPN12_GLOBAL__N_186__struct_compiled_op_mafba047653663e1b513f9c00c11839feb34f2ac931654d5fdb741676b3ec8cbeE.cold.4, symObjAddr: 0x33B8, symBinAddr: 0x7464, symSize: 0x28 }
  - { offsetInCU: 0xBE3E, offset: 0xBE3E, size: 0x8, addend: 0x0, symName: __ZL95__struct_compiled_op_mafba047653663e1b513f9c00c11839feb34f2ac931654d5fdb741676b3ec8cbe_executorPN12_GLOBAL__N_186__struct_compiled_op_mafba047653663e1b513f9c00c11839feb34f2ac931654d5fdb741676b3ec8cbeE.cold.6, symObjAddr: 0x3408, symBinAddr: 0x74B4, symSize: 0x28 }
  - { offsetInCU: 0xBE6C, offset: 0xBE6C, size: 0x8, addend: 0x0, symName: __ZL95__struct_compiled_op_mafba047653663e1b513f9c00c11839feb34f2ac931654d5fdb741676b3ec8cbe_executorPN12_GLOBAL__N_186__struct_compiled_op_mafba047653663e1b513f9c00c11839feb34f2ac931654d5fdb741676b3ec8cbeE.cold.8, symObjAddr: 0x3458, symBinAddr: 0x7504, symSize: 0x28 }
  - { offsetInCU: 0xBE9A, offset: 0xBE9A, size: 0x8, addend: 0x0, symName: __ZL95__struct_compiled_op_mafba047653663e1b513f9c00c11839feb34f2ac931654d5fdb741676b3ec8cbe_executorPN12_GLOBAL__N_186__struct_compiled_op_mafba047653663e1b513f9c00c11839feb34f2ac931654d5fdb741676b3ec8cbeE.cold.9, symObjAddr: 0x3480, symBinAddr: 0x752C, symSize: 0x28 }
  - { offsetInCU: 0xBED9, offset: 0xBED9, size: 0x8, addend: 0x0, symName: __ZL95__struct_compiled_op_mafba047653663e1b513f9c00c11839feb34f2ac931654d5fdb741676b3ec8cbe_executorPN12_GLOBAL__N_186__struct_compiled_op_mafba047653663e1b513f9c00c11839feb34f2ac931654d5fdb741676b3ec8cbeE.cold.10, symObjAddr: 0x34A8, symBinAddr: 0x7554, symSize: 0x28 }
  - { offsetInCU: 0xBF07, offset: 0xBF07, size: 0x8, addend: 0x0, symName: __ZL95__struct_compiled_op_mafba047653663e1b513f9c00c11839feb34f2ac931654d5fdb741676b3ec8cbe_executorPN12_GLOBAL__N_186__struct_compiled_op_mafba047653663e1b513f9c00c11839feb34f2ac931654d5fdb741676b3ec8cbeE.cold.11, symObjAddr: 0x34D0, symBinAddr: 0x757C, symSize: 0x28 }
  - { offsetInCU: 0xC017, offset: 0xC017, size: 0x8, addend: 0x0, symName: __ZL97__struct_compiled_op_mafba047653663e1b513f9c00c11839feb34f2ac931654d5fdb741676b3ec8cbe_destructorP7_object, symObjAddr: 0x1CD0, symBinAddr: 0x5D7C, symSize: 0x108 }
...
