---
triple:          'arm64-apple-darwin'
binary-path:     '/Users/paulosoares/personal/phd/code/tomcat-coordination/.pytensor_compiles/compiledir_2024.10.16--21.28.53_1/tmp_uwt762y/m2910d2b37adb1d0cfe111b4e8bcd09bacbe76deecbfae733933aac243b66ca50.so'
relocations:
  - { offsetInCU: 0x26, offset: 0x26, size: 0x8, addend: 0x0, symName: _PyInit_m2910d2b37adb1d0cfe111b4e8bcd09bacbe76deecbfae733933aac243b66ca50, symObjAddr: 0x0, symBinAddr: 0x2E0C, symSize: 0x224 }
  - { offsetInCU: 0x53, offset: 0x53, size: 0x8, addend: 0x0, symName: __ZL11PyArray_API, symObjAddr: 0x33740, symBinAddr: 0xC140, symSize: 0x0 }
  - { offsetInCU: 0x73, offset: 0x73, size: 0x8, addend: 0x0, symName: __ZL9moduledef, symObjAddr: 0x4FC0, symBinAddr: 0xC098, symSize: 0x0 }
  - { offsetInCU: 0xC86, offset: 0xC86, size: 0x8, addend: 0x0, symName: __ZL9MyMethods, symObjAddr: 0x5028, symBinAddr: 0xC100, symSize: 0x0 }
  - { offsetInCU: 0x20BF, offset: 0x20BF, size: 0x8, addend: 0x0, symName: __ZNSt3__111__sift_downB8un170006INS_17_ClassicAlgPolicyERNS_6__lessIvvEENS_16reverse_iteratorINS_11__wrap_iterIPNS_4pairIiiEEEEEEEEvT1_OT0_NS_15iterator_traitsISC_E15difference_typeESC_, symObjAddr: 0x311C, symBinAddr: 0x5F28, symSize: 0x130 }
  - { offsetInCU: 0x23D3, offset: 0x23D3, size: 0x8, addend: 0x0, symName: __ZNSt3__111__introsortINS_17_ClassicAlgPolicyERNS_6__lessIvvEENS_16reverse_iteratorINS_11__wrap_iterIPNS_4pairIiiEEEEEELb0EEEvT1_SC_T0_NS_15iterator_traitsISC_E15difference_typeEb, symObjAddr: 0x33A8, symBinAddr: 0x61B4, symSize: 0x760 }
  - { offsetInCU: 0x3667, offset: 0x3667, size: 0x8, addend: 0x0, symName: __ZNSt3__131__partition_with_equals_on_leftB8un170006INS_17_ClassicAlgPolicyENS_16reverse_iteratorINS_11__wrap_iterIPNS_4pairIiiEEEEEERNS_6__lessIvvEEEET0_SC_SC_T1_, symObjAddr: 0x3C9C, symBinAddr: 0x6AA8, symSize: 0x18C }
  - { offsetInCU: 0x39E5, offset: 0x39E5, size: 0x8, addend: 0x0, symName: __ZNSt3__132__partition_with_equals_on_rightB8un170006INS_17_ClassicAlgPolicyENS_16reverse_iteratorINS_11__wrap_iterIPNS_4pairIiiEEEEEERNS_6__lessIvvEEEENS4_IT0_bEESC_SC_T1_, symObjAddr: 0x3E28, symBinAddr: 0x6C34, symSize: 0x150 }
  - { offsetInCU: 0x3DFB, offset: 0x3DFB, size: 0x8, addend: 0x0, symName: __ZNSt3__127__insertion_sort_incompleteB8un170006INS_17_ClassicAlgPolicyERNS_6__lessIvvEENS_16reverse_iteratorINS_11__wrap_iterIPNS_4pairIiiEEEEEEEEbT1_SC_T0_, symObjAddr: 0x3F78, symBinAddr: 0x6D84, symSize: 0x334 }
  - { offsetInCU: 0x55F7, offset: 0x55F7, size: 0x8, addend: 0x0, symName: __ZNSt3__14sortB8un170006INS_16reverse_iteratorINS_11__wrap_iterIPNS_4pairIiiEEEEEEEEvT_S8_, symObjAddr: 0x2F70, symBinAddr: 0x5D7C, symSize: 0x40 }
  - { offsetInCU: 0x5B78, offset: 0x5B78, size: 0x8, addend: 0x0, symName: __ZNSt3__119__partial_sort_implB8un170006INS_17_ClassicAlgPolicyERNS_6__lessIvvEENS_16reverse_iteratorINS_11__wrap_iterIPNS_4pairIiiEEEEEESB_EET1_SC_SC_T2_OT0_, symObjAddr: 0x2FB0, symBinAddr: 0x5DBC, symSize: 0x16C }
  - { offsetInCU: 0x5ECB, offset: 0x5ECB, size: 0x8, addend: 0x0, symName: __ZNSt3__110__pop_heapB8un170006INS_17_ClassicAlgPolicyENS_6__lessIvvEENS_16reverse_iteratorINS_11__wrap_iterIPNS_4pairIiiEEEEEEEEvT1_SB_RT0_NS_15iterator_traitsISB_E15difference_typeE, symObjAddr: 0x324C, symBinAddr: 0x6058, symSize: 0x15C }
  - { offsetInCU: 0x6766, offset: 0x6766, size: 0x8, addend: 0x0, symName: __ZNSt3__17__sort3B8un170006INS_17_ClassicAlgPolicyERNS_6__lessIvvEENS_16reverse_iteratorINS_11__wrap_iterIPNS_4pairIiiEEEEEEEEjT1_SC_SC_T0_, symObjAddr: 0x3B08, symBinAddr: 0x6914, symSize: 0x194 }
  - { offsetInCU: 0x67D0, offset: 0x67D0, size: 0x8, addend: 0x0, symName: __ZNSt3__17__sort3B8un170006INS_17_ClassicAlgPolicyERNS_6__lessIvvEENS_16reverse_iteratorINS_11__wrap_iterIPNS_4pairIiiEEEEEEEEjT1_SC_SC_T0_, symObjAddr: 0x3B08, symBinAddr: 0x6914, symSize: 0x194 }
  - { offsetInCU: 0x67F6, offset: 0x67F6, size: 0x8, addend: 0x0, symName: __ZNSt3__17__sort3B8un170006INS_17_ClassicAlgPolicyERNS_6__lessIvvEENS_16reverse_iteratorINS_11__wrap_iterIPNS_4pairIiiEEEEEEEEjT1_SC_SC_T0_, symObjAddr: 0x3B08, symBinAddr: 0x6914, symSize: 0x194 }
  - { offsetInCU: 0x6C14, offset: 0x6C14, size: 0x8, addend: 0x0, symName: __ZNSt3__17__sort5B8un170006INS_17_ClassicAlgPolicyERNS_6__lessIvvEENS_16reverse_iteratorINS_11__wrap_iterIPNS_4pairIiiEEEEEEEEvT1_SC_SC_SC_SC_T0_, symObjAddr: 0x42AC, symBinAddr: 0x70B8, symSize: 0x21C }
  - { offsetInCU: 0x9C48, offset: 0x9C48, size: 0x8, addend: 0x0, symName: _PyInit_m2910d2b37adb1d0cfe111b4e8bcd09bacbe76deecbfae733933aac243b66ca50, symObjAddr: 0x0, symBinAddr: 0x2E0C, symSize: 0x224 }
  - { offsetInCU: 0x9F4F, offset: 0x9F4F, size: 0x8, addend: 0x0, symName: __ZL11instantiateP7_objectS0_, symObjAddr: 0x224, symBinAddr: 0x3030, symSize: 0x1C4 }
  - { offsetInCU: 0xA334, offset: 0xA334, size: 0x8, addend: 0x0, symName: __ZL95__struct_compiled_op_m2910d2b37adb1d0cfe111b4e8bcd09bacbe76deecbfae733933aac243b66ca50_executorPN12_GLOBAL__N_186__struct_compiled_op_m2910d2b37adb1d0cfe111b4e8bcd09bacbe76deecbfae733933aac243b66ca50E, symObjAddr: 0x3E8, symBinAddr: 0x31F4, symSize: 0x4 }
  - { offsetInCU: 0xA3A9, offset: 0xA3A9, size: 0x8, addend: 0x0, symName: __ZL11instantiateP7_objectS0_.cold.1, symObjAddr: 0x44C8, symBinAddr: 0x72D4, symSize: 0x28 }
  - { offsetInCU: 0xA3C1, offset: 0xA3C1, size: 0x8, addend: 0x0, symName: __ZL11instantiateP7_objectS0_.cold.2, symObjAddr: 0x44F0, symBinAddr: 0x72FC, symSize: 0x28 }
  - { offsetInCU: 0xA3D9, offset: 0xA3D9, size: 0x8, addend: 0x0, symName: __ZL95__struct_compiled_op_m2910d2b37adb1d0cfe111b4e8bcd09bacbe76deecbfae733933aac243b66ca50_executorPN12_GLOBAL__N_186__struct_compiled_op_m2910d2b37adb1d0cfe111b4e8bcd09bacbe76deecbfae733933aac243b66ca50E, symObjAddr: 0x3E8, symBinAddr: 0x31F4, symSize: 0x4 }
  - { offsetInCU: 0xA40A, offset: 0xA40A, size: 0x8, addend: 0x0, symName: __ZL95__struct_compiled_op_m2910d2b37adb1d0cfe111b4e8bcd09bacbe76deecbfae733933aac243b66ca50_executorPN12_GLOBAL__N_186__struct_compiled_op_m2910d2b37adb1d0cfe111b4e8bcd09bacbe76deecbfae733933aac243b66ca50E, symObjAddr: 0x3E8, symBinAddr: 0x31F4, symSize: 0x4 }
  - { offsetInCU: 0xA41D, offset: 0xA41D, size: 0x8, addend: 0x0, symName: __ZN12_GLOBAL__N_186__struct_compiled_op_m2910d2b37adb1d0cfe111b4e8bcd09bacbe76deecbfae733933aac243b66ca503runEv, symObjAddr: 0x548, symBinAddr: 0x3354, symSize: 0x2A28 }
  - { offsetInCU: 0xC5D6, offset: 0xC5D6, size: 0x8, addend: 0x0, symName: __ZL97__struct_compiled_op_m2910d2b37adb1d0cfe111b4e8bcd09bacbe76deecbfae733933aac243b66ca50_destructorP7_object, symObjAddr: 0x3EC, symBinAddr: 0x31F8, symSize: 0x15C }
  - { offsetInCU: 0xCB7C, offset: 0xCB7C, size: 0x8, addend: 0x0, symName: __ZN12_GLOBAL__N_186__struct_compiled_op_m2910d2b37adb1d0cfe111b4e8bcd09bacbe76deecbfae733933aac243b66ca503runEv.cold.1, symObjAddr: 0x4518, symBinAddr: 0x7324, symSize: 0x28 }
  - { offsetInCU: 0xCB94, offset: 0xCB94, size: 0x8, addend: 0x0, symName: __ZN12_GLOBAL__N_186__struct_compiled_op_m2910d2b37adb1d0cfe111b4e8bcd09bacbe76deecbfae733933aac243b66ca503runEv.cold.5, symObjAddr: 0x45B8, symBinAddr: 0x73C4, symSize: 0x28 }
  - { offsetInCU: 0xCBAC, offset: 0xCBAC, size: 0x8, addend: 0x0, symName: __ZN12_GLOBAL__N_186__struct_compiled_op_m2910d2b37adb1d0cfe111b4e8bcd09bacbe76deecbfae733933aac243b66ca503runEv.cold.7, symObjAddr: 0x4608, symBinAddr: 0x7414, symSize: 0x28 }
  - { offsetInCU: 0xCBC4, offset: 0xCBC4, size: 0x8, addend: 0x0, symName: __ZN12_GLOBAL__N_186__struct_compiled_op_m2910d2b37adb1d0cfe111b4e8bcd09bacbe76deecbfae733933aac243b66ca503runEv.cold.8, symObjAddr: 0x4630, symBinAddr: 0x743C, symSize: 0x28 }
  - { offsetInCU: 0xCBDC, offset: 0xCBDC, size: 0x8, addend: 0x0, symName: __ZN12_GLOBAL__N_186__struct_compiled_op_m2910d2b37adb1d0cfe111b4e8bcd09bacbe76deecbfae733933aac243b66ca503runEv.cold.9, symObjAddr: 0x4658, symBinAddr: 0x7464, symSize: 0x28 }
  - { offsetInCU: 0xCBF4, offset: 0xCBF4, size: 0x8, addend: 0x0, symName: __ZN12_GLOBAL__N_186__struct_compiled_op_m2910d2b37adb1d0cfe111b4e8bcd09bacbe76deecbfae733933aac243b66ca503runEv.cold.10, symObjAddr: 0x4680, symBinAddr: 0x748C, symSize: 0x28 }
  - { offsetInCU: 0xCC0C, offset: 0xCC0C, size: 0x8, addend: 0x0, symName: __ZN12_GLOBAL__N_186__struct_compiled_op_m2910d2b37adb1d0cfe111b4e8bcd09bacbe76deecbfae733933aac243b66ca503runEv.cold.11, symObjAddr: 0x46A8, symBinAddr: 0x74B4, symSize: 0x28 }
  - { offsetInCU: 0xCC3B, offset: 0xCC3B, size: 0x8, addend: 0x0, symName: __ZN12_GLOBAL__N_186__struct_compiled_op_m2910d2b37adb1d0cfe111b4e8bcd09bacbe76deecbfae733933aac243b66ca503runEv.cold.2, symObjAddr: 0x4540, symBinAddr: 0x734C, symSize: 0x28 }
  - { offsetInCU: 0xCC53, offset: 0xCC53, size: 0x8, addend: 0x0, symName: __ZN12_GLOBAL__N_186__struct_compiled_op_m2910d2b37adb1d0cfe111b4e8bcd09bacbe76deecbfae733933aac243b66ca503runEv.cold.3, symObjAddr: 0x4568, symBinAddr: 0x7374, symSize: 0x28 }
  - { offsetInCU: 0xCC6B, offset: 0xCC6B, size: 0x8, addend: 0x0, symName: __ZN12_GLOBAL__N_186__struct_compiled_op_m2910d2b37adb1d0cfe111b4e8bcd09bacbe76deecbfae733933aac243b66ca503runEv.cold.4, symObjAddr: 0x4590, symBinAddr: 0x739C, symSize: 0x28 }
  - { offsetInCU: 0xCC83, offset: 0xCC83, size: 0x8, addend: 0x0, symName: __ZN12_GLOBAL__N_186__struct_compiled_op_m2910d2b37adb1d0cfe111b4e8bcd09bacbe76deecbfae733933aac243b66ca503runEv.cold.6, symObjAddr: 0x45E0, symBinAddr: 0x73EC, symSize: 0x28 }
  - { offsetInCU: 0xCC9B, offset: 0xCC9B, size: 0x8, addend: 0x0, symName: __ZN12_GLOBAL__N_186__struct_compiled_op_m2910d2b37adb1d0cfe111b4e8bcd09bacbe76deecbfae733933aac243b66ca503runEv.cold.12, symObjAddr: 0x46D0, symBinAddr: 0x74DC, symSize: 0x28 }
  - { offsetInCU: 0xCCB3, offset: 0xCCB3, size: 0x8, addend: 0x0, symName: __ZN12_GLOBAL__N_186__struct_compiled_op_m2910d2b37adb1d0cfe111b4e8bcd09bacbe76deecbfae733933aac243b66ca503runEv.cold.13, symObjAddr: 0x46F8, symBinAddr: 0x7504, symSize: 0x28 }
  - { offsetInCU: 0xCCCB, offset: 0xCCCB, size: 0x8, addend: 0x0, symName: __ZN12_GLOBAL__N_186__struct_compiled_op_m2910d2b37adb1d0cfe111b4e8bcd09bacbe76deecbfae733933aac243b66ca503runEv.cold.14, symObjAddr: 0x4720, symBinAddr: 0x752C, symSize: 0x28 }
...
