---
triple:          'arm64-apple-darwin'
binary-path:     '/Users/paulosoares/personal/phd/code/tomcat-coordination/.pytensor_compiles/compiledir_2024.10.16--21.29.11_1/tmpmtfye506/mb855666e5b3f6b1cbe4e46c2d46f44cc73828440c95ee30a5ecdb089ace6d92d.so'
relocations:
  - { offsetInCU: 0x26, offset: 0x26, size: 0x8, addend: 0x0, symName: _PyInit_mb855666e5b3f6b1cbe4e46c2d46f44cc73828440c95ee30a5ecdb089ace6d92d, symObjAddr: 0x0, symBinAddr: 0x1314, symSize: 0x224 }
  - { offsetInCU: 0x53, offset: 0x53, size: 0x8, addend: 0x0, symName: __ZL11PyArray_API, symObjAddr: 0x27C00, symBinAddr: 0x8148, symSize: 0x0 }
  - { offsetInCU: 0x73, offset: 0x73, size: 0x8, addend: 0x0, symName: __ZL9moduledef, symObjAddr: 0x2AA0, symBinAddr: 0x80A0, symSize: 0x0 }
  - { offsetInCU: 0xC86, offset: 0xC86, size: 0x8, addend: 0x0, symName: __ZL9MyMethods, symObjAddr: 0x2B08, symBinAddr: 0x8108, symSize: 0x0 }
  - { offsetInCU: 0x20BF, offset: 0x20BF, size: 0x8, addend: 0x0, symName: __ZNSt3__111__sift_downB8un170006INS_17_ClassicAlgPolicyERNS_6__lessIvvEENS_16reverse_iteratorINS_11__wrap_iterIPNS_4pairIiiEEEEEEEEvT1_OT0_NS_15iterator_traitsISC_E15difference_typeESC_, symObjAddr: 0x1028, symBinAddr: 0x233C, symSize: 0x130 }
  - { offsetInCU: 0x23D3, offset: 0x23D3, size: 0x8, addend: 0x0, symName: __ZNSt3__111__introsortINS_17_ClassicAlgPolicyERNS_6__lessIvvEENS_16reverse_iteratorINS_11__wrap_iterIPNS_4pairIiiEEEEEELb0EEEvT1_SC_T0_NS_15iterator_traitsISC_E15difference_typeEb, symObjAddr: 0x12B4, symBinAddr: 0x25C8, symSize: 0x760 }
  - { offsetInCU: 0x3667, offset: 0x3667, size: 0x8, addend: 0x0, symName: __ZNSt3__131__partition_with_equals_on_leftB8un170006INS_17_ClassicAlgPolicyENS_16reverse_iteratorINS_11__wrap_iterIPNS_4pairIiiEEEEEERNS_6__lessIvvEEEET0_SC_SC_T1_, symObjAddr: 0x1BA8, symBinAddr: 0x2EBC, symSize: 0x18C }
  - { offsetInCU: 0x39E5, offset: 0x39E5, size: 0x8, addend: 0x0, symName: __ZNSt3__132__partition_with_equals_on_rightB8un170006INS_17_ClassicAlgPolicyENS_16reverse_iteratorINS_11__wrap_iterIPNS_4pairIiiEEEEEERNS_6__lessIvvEEEENS4_IT0_bEESC_SC_T1_, symObjAddr: 0x1D34, symBinAddr: 0x3048, symSize: 0x150 }
  - { offsetInCU: 0x3DFB, offset: 0x3DFB, size: 0x8, addend: 0x0, symName: __ZNSt3__127__insertion_sort_incompleteB8un170006INS_17_ClassicAlgPolicyERNS_6__lessIvvEENS_16reverse_iteratorINS_11__wrap_iterIPNS_4pairIiiEEEEEEEEbT1_SC_T0_, symObjAddr: 0x1E84, symBinAddr: 0x3198, symSize: 0x334 }
  - { offsetInCU: 0x5A5E, offset: 0x5A5E, size: 0x8, addend: 0x0, symName: __ZNSt3__119__partial_sort_implB8un170006INS_17_ClassicAlgPolicyERNS_6__lessIvvEENS_16reverse_iteratorINS_11__wrap_iterIPNS_4pairIiiEEEEEESB_EET1_SC_SC_T2_OT0_, symObjAddr: 0xEBC, symBinAddr: 0x21D0, symSize: 0x16C }
  - { offsetInCU: 0x5DB1, offset: 0x5DB1, size: 0x8, addend: 0x0, symName: __ZNSt3__110__pop_heapB8un170006INS_17_ClassicAlgPolicyENS_6__lessIvvEENS_16reverse_iteratorINS_11__wrap_iterIPNS_4pairIiiEEEEEEEEvT1_SB_RT0_NS_15iterator_traitsISB_E15difference_typeE, symObjAddr: 0x1158, symBinAddr: 0x246C, symSize: 0x15C }
  - { offsetInCU: 0x664C, offset: 0x664C, size: 0x8, addend: 0x0, symName: __ZNSt3__17__sort3B8un170006INS_17_ClassicAlgPolicyERNS_6__lessIvvEENS_16reverse_iteratorINS_11__wrap_iterIPNS_4pairIiiEEEEEEEEjT1_SC_SC_T0_, symObjAddr: 0x1A14, symBinAddr: 0x2D28, symSize: 0x194 }
  - { offsetInCU: 0x66B6, offset: 0x66B6, size: 0x8, addend: 0x0, symName: __ZNSt3__17__sort3B8un170006INS_17_ClassicAlgPolicyERNS_6__lessIvvEENS_16reverse_iteratorINS_11__wrap_iterIPNS_4pairIiiEEEEEEEEjT1_SC_SC_T0_, symObjAddr: 0x1A14, symBinAddr: 0x2D28, symSize: 0x194 }
  - { offsetInCU: 0x66DC, offset: 0x66DC, size: 0x8, addend: 0x0, symName: __ZNSt3__17__sort3B8un170006INS_17_ClassicAlgPolicyERNS_6__lessIvvEENS_16reverse_iteratorINS_11__wrap_iterIPNS_4pairIiiEEEEEEEEjT1_SC_SC_T0_, symObjAddr: 0x1A14, symBinAddr: 0x2D28, symSize: 0x194 }
  - { offsetInCU: 0x6AFA, offset: 0x6AFA, size: 0x8, addend: 0x0, symName: __ZNSt3__17__sort5B8un170006INS_17_ClassicAlgPolicyERNS_6__lessIvvEENS_16reverse_iteratorINS_11__wrap_iterIPNS_4pairIiiEEEEEEEEvT1_SC_SC_SC_SC_T0_, symObjAddr: 0x21B8, symBinAddr: 0x34CC, symSize: 0x21C }
  - { offsetInCU: 0x9A2F, offset: 0x9A2F, size: 0x8, addend: 0x0, symName: _PyInit_mb855666e5b3f6b1cbe4e46c2d46f44cc73828440c95ee30a5ecdb089ace6d92d, symObjAddr: 0x0, symBinAddr: 0x1314, symSize: 0x224 }
  - { offsetInCU: 0x9CA9, offset: 0x9CA9, size: 0x8, addend: 0x0, symName: __ZL11instantiateP7_objectS0_, symObjAddr: 0x224, symBinAddr: 0x1538, symSize: 0x110 }
  - { offsetInCU: 0x9E5B, offset: 0x9E5B, size: 0x8, addend: 0x0, symName: __ZL95__struct_compiled_op_mb855666e5b3f6b1cbe4e46c2d46f44cc73828440c95ee30a5ecdb089ace6d92d_executorPN12_GLOBAL__N_186__struct_compiled_op_mb855666e5b3f6b1cbe4e46c2d46f44cc73828440c95ee30a5ecdb089ace6d92dE, symObjAddr: 0x334, symBinAddr: 0x1648, symSize: 0xB0C }
  - { offsetInCU: 0x9ED0, offset: 0x9ED0, size: 0x8, addend: 0x0, symName: __ZL11instantiateP7_objectS0_.cold.1, symObjAddr: 0x23D4, symBinAddr: 0x36E8, symSize: 0x28 }
  - { offsetInCU: 0x9EE8, offset: 0x9EE8, size: 0x8, addend: 0x0, symName: __ZL11instantiateP7_objectS0_.cold.2, symObjAddr: 0x23FC, symBinAddr: 0x3710, symSize: 0x28 }
  - { offsetInCU: 0xA2F6, offset: 0xA2F6, size: 0x8, addend: 0x0, symName: __ZL95__struct_compiled_op_mb855666e5b3f6b1cbe4e46c2d46f44cc73828440c95ee30a5ecdb089ace6d92d_executorPN12_GLOBAL__N_186__struct_compiled_op_mb855666e5b3f6b1cbe4e46c2d46f44cc73828440c95ee30a5ecdb089ace6d92dE, symObjAddr: 0x334, symBinAddr: 0x1648, symSize: 0xB0C }
  - { offsetInCU: 0xAD59, offset: 0xAD59, size: 0x8, addend: 0x0, symName: __ZL95__struct_compiled_op_mb855666e5b3f6b1cbe4e46c2d46f44cc73828440c95ee30a5ecdb089ace6d92d_executorPN12_GLOBAL__N_186__struct_compiled_op_mb855666e5b3f6b1cbe4e46c2d46f44cc73828440c95ee30a5ecdb089ace6d92dE.cold.2, symObjAddr: 0x244C, symBinAddr: 0x3760, symSize: 0x28 }
  - { offsetInCU: 0xAD87, offset: 0xAD87, size: 0x8, addend: 0x0, symName: __ZL95__struct_compiled_op_mb855666e5b3f6b1cbe4e46c2d46f44cc73828440c95ee30a5ecdb089ace6d92d_executorPN12_GLOBAL__N_186__struct_compiled_op_mb855666e5b3f6b1cbe4e46c2d46f44cc73828440c95ee30a5ecdb089ace6d92dE.cold.1, symObjAddr: 0x2424, symBinAddr: 0x3738, symSize: 0x28 }
  - { offsetInCU: 0xADB5, offset: 0xADB5, size: 0x8, addend: 0x0, symName: __ZL95__struct_compiled_op_mb855666e5b3f6b1cbe4e46c2d46f44cc73828440c95ee30a5ecdb089ace6d92d_executorPN12_GLOBAL__N_186__struct_compiled_op_mb855666e5b3f6b1cbe4e46c2d46f44cc73828440c95ee30a5ecdb089ace6d92dE.cold.3, symObjAddr: 0x2474, symBinAddr: 0x3788, symSize: 0x28 }
  - { offsetInCU: 0xADE3, offset: 0xADE3, size: 0x8, addend: 0x0, symName: __ZL95__struct_compiled_op_mb855666e5b3f6b1cbe4e46c2d46f44cc73828440c95ee30a5ecdb089ace6d92d_executorPN12_GLOBAL__N_186__struct_compiled_op_mb855666e5b3f6b1cbe4e46c2d46f44cc73828440c95ee30a5ecdb089ace6d92dE.cold.4, symObjAddr: 0x249C, symBinAddr: 0x37B0, symSize: 0x28 }
  - { offsetInCU: 0xAE11, offset: 0xAE11, size: 0x8, addend: 0x0, symName: __ZL95__struct_compiled_op_mb855666e5b3f6b1cbe4e46c2d46f44cc73828440c95ee30a5ecdb089ace6d92d_executorPN12_GLOBAL__N_186__struct_compiled_op_mb855666e5b3f6b1cbe4e46c2d46f44cc73828440c95ee30a5ecdb089ace6d92dE.cold.5, symObjAddr: 0x24C4, symBinAddr: 0x37D8, symSize: 0x28 }
  - { offsetInCU: 0xAE3F, offset: 0xAE3F, size: 0x8, addend: 0x0, symName: __ZL95__struct_compiled_op_mb855666e5b3f6b1cbe4e46c2d46f44cc73828440c95ee30a5ecdb089ace6d92d_executorPN12_GLOBAL__N_186__struct_compiled_op_mb855666e5b3f6b1cbe4e46c2d46f44cc73828440c95ee30a5ecdb089ace6d92dE.cold.6, symObjAddr: 0x24EC, symBinAddr: 0x3800, symSize: 0x28 }
  - { offsetInCU: 0xAEF0, offset: 0xAEF0, size: 0x8, addend: 0x0, symName: __ZL97__struct_compiled_op_mb855666e5b3f6b1cbe4e46c2d46f44cc73828440c95ee30a5ecdb089ace6d92d_destructorP7_object, symObjAddr: 0xE40, symBinAddr: 0x2154, symSize: 0x7C }
...
