---
triple:          'arm64-apple-darwin'
binary-path:     '/Users/paulosoares/personal/phd/code/tomcat-coordination/.pytensor_compiles/compiledir_2024.10.16--21.28.53_1/tmpaytucvba/m4fd9084d0a7418c6bb054b6a21b061166e5c790e606c15cacfee00ea305e5252.so'
relocations:
  - { offsetInCU: 0x26, offset: 0x26, size: 0x8, addend: 0x0, symName: _PyInit_m4fd9084d0a7418c6bb054b6a21b061166e5c790e606c15cacfee00ea305e5252, symObjAddr: 0x0, symBinAddr: 0x445C, symSize: 0x224 }
  - { offsetInCU: 0x53, offset: 0x53, size: 0x8, addend: 0x0, symName: __ZL11PyArray_API, symObjAddr: 0x2BEC8, symBinAddr: 0xC140, symSize: 0x0 }
  - { offsetInCU: 0x73, offset: 0x73, size: 0x8, addend: 0x0, symName: __ZL9moduledef, symObjAddr: 0x3970, symBinAddr: 0xC098, symSize: 0x0 }
  - { offsetInCU: 0xC86, offset: 0xC86, size: 0x8, addend: 0x0, symName: __ZL9MyMethods, symObjAddr: 0x39D8, symBinAddr: 0xC100, symSize: 0x0 }
  - { offsetInCU: 0x20BF, offset: 0x20BF, size: 0x8, addend: 0x0, symName: __ZNSt3__111__sift_downB8un170006INS_17_ClassicAlgPolicyERNS_6__lessIvvEENS_16reverse_iteratorINS_11__wrap_iterIPNS_4pairIiiEEEEEEEEvT1_OT0_NS_15iterator_traitsISC_E15difference_typeESC_, symObjAddr: 0x1C18, symBinAddr: 0x6074, symSize: 0x130 }
  - { offsetInCU: 0x23D3, offset: 0x23D3, size: 0x8, addend: 0x0, symName: __ZNSt3__111__introsortINS_17_ClassicAlgPolicyERNS_6__lessIvvEENS_16reverse_iteratorINS_11__wrap_iterIPNS_4pairIiiEEEEEELb0EEEvT1_SC_T0_NS_15iterator_traitsISC_E15difference_typeEb, symObjAddr: 0x1EA4, symBinAddr: 0x6300, symSize: 0x760 }
  - { offsetInCU: 0x3667, offset: 0x3667, size: 0x8, addend: 0x0, symName: __ZNSt3__131__partition_with_equals_on_leftB8un170006INS_17_ClassicAlgPolicyENS_16reverse_iteratorINS_11__wrap_iterIPNS_4pairIiiEEEEEERNS_6__lessIvvEEEET0_SC_SC_T1_, symObjAddr: 0x2798, symBinAddr: 0x6BF4, symSize: 0x18C }
  - { offsetInCU: 0x39E5, offset: 0x39E5, size: 0x8, addend: 0x0, symName: __ZNSt3__132__partition_with_equals_on_rightB8un170006INS_17_ClassicAlgPolicyENS_16reverse_iteratorINS_11__wrap_iterIPNS_4pairIiiEEEEEERNS_6__lessIvvEEEENS4_IT0_bEESC_SC_T1_, symObjAddr: 0x2924, symBinAddr: 0x6D80, symSize: 0x150 }
  - { offsetInCU: 0x3DFB, offset: 0x3DFB, size: 0x8, addend: 0x0, symName: __ZNSt3__127__insertion_sort_incompleteB8un170006INS_17_ClassicAlgPolicyERNS_6__lessIvvEENS_16reverse_iteratorINS_11__wrap_iterIPNS_4pairIiiEEEEEEEEbT1_SC_T0_, symObjAddr: 0x2A74, symBinAddr: 0x6ED0, symSize: 0x334 }
  - { offsetInCU: 0x5A5E, offset: 0x5A5E, size: 0x8, addend: 0x0, symName: __ZNSt3__119__partial_sort_implB8un170006INS_17_ClassicAlgPolicyERNS_6__lessIvvEENS_16reverse_iteratorINS_11__wrap_iterIPNS_4pairIiiEEEEEESB_EET1_SC_SC_T2_OT0_, symObjAddr: 0x1AAC, symBinAddr: 0x5F08, symSize: 0x16C }
  - { offsetInCU: 0x5DB1, offset: 0x5DB1, size: 0x8, addend: 0x0, symName: __ZNSt3__110__pop_heapB8un170006INS_17_ClassicAlgPolicyENS_6__lessIvvEENS_16reverse_iteratorINS_11__wrap_iterIPNS_4pairIiiEEEEEEEEvT1_SB_RT0_NS_15iterator_traitsISB_E15difference_typeE, symObjAddr: 0x1D48, symBinAddr: 0x61A4, symSize: 0x15C }
  - { offsetInCU: 0x664C, offset: 0x664C, size: 0x8, addend: 0x0, symName: __ZNSt3__17__sort3B8un170006INS_17_ClassicAlgPolicyERNS_6__lessIvvEENS_16reverse_iteratorINS_11__wrap_iterIPNS_4pairIiiEEEEEEEEjT1_SC_SC_T0_, symObjAddr: 0x2604, symBinAddr: 0x6A60, symSize: 0x194 }
  - { offsetInCU: 0x66B6, offset: 0x66B6, size: 0x8, addend: 0x0, symName: __ZNSt3__17__sort3B8un170006INS_17_ClassicAlgPolicyERNS_6__lessIvvEENS_16reverse_iteratorINS_11__wrap_iterIPNS_4pairIiiEEEEEEEEjT1_SC_SC_T0_, symObjAddr: 0x2604, symBinAddr: 0x6A60, symSize: 0x194 }
  - { offsetInCU: 0x66DC, offset: 0x66DC, size: 0x8, addend: 0x0, symName: __ZNSt3__17__sort3B8un170006INS_17_ClassicAlgPolicyERNS_6__lessIvvEENS_16reverse_iteratorINS_11__wrap_iterIPNS_4pairIiiEEEEEEEEjT1_SC_SC_T0_, symObjAddr: 0x2604, symBinAddr: 0x6A60, symSize: 0x194 }
  - { offsetInCU: 0x6AFA, offset: 0x6AFA, size: 0x8, addend: 0x0, symName: __ZNSt3__17__sort5B8un170006INS_17_ClassicAlgPolicyERNS_6__lessIvvEENS_16reverse_iteratorINS_11__wrap_iterIPNS_4pairIiiEEEEEEEEvT1_SC_SC_SC_SC_T0_, symObjAddr: 0x2DA8, symBinAddr: 0x7204, symSize: 0x21C }
  - { offsetInCU: 0x9AA6, offset: 0x9AA6, size: 0x8, addend: 0x0, symName: _PyInit_m4fd9084d0a7418c6bb054b6a21b061166e5c790e606c15cacfee00ea305e5252, symObjAddr: 0x0, symBinAddr: 0x445C, symSize: 0x224 }
  - { offsetInCU: 0x9D8B, offset: 0x9D8B, size: 0x8, addend: 0x0, symName: __ZL11instantiateP7_objectS0_, symObjAddr: 0x224, symBinAddr: 0x4680, symSize: 0x17C }
  - { offsetInCU: 0xA0B0, offset: 0xA0B0, size: 0x8, addend: 0x0, symName: __ZL95__struct_compiled_op_m4fd9084d0a7418c6bb054b6a21b061166e5c790e606c15cacfee00ea305e5252_executorPN12_GLOBAL__N_186__struct_compiled_op_m4fd9084d0a7418c6bb054b6a21b061166e5c790e606c15cacfee00ea305e5252E, symObjAddr: 0x3A0, symBinAddr: 0x47FC, symSize: 0x1604 }
  - { offsetInCU: 0xA125, offset: 0xA125, size: 0x8, addend: 0x0, symName: __ZL11instantiateP7_objectS0_.cold.1, symObjAddr: 0x2FC4, symBinAddr: 0x7420, symSize: 0x28 }
  - { offsetInCU: 0xA13D, offset: 0xA13D, size: 0x8, addend: 0x0, symName: __ZL11instantiateP7_objectS0_.cold.2, symObjAddr: 0x2FEC, symBinAddr: 0x7448, symSize: 0x28 }
  - { offsetInCU: 0xA7D9, offset: 0xA7D9, size: 0x8, addend: 0x0, symName: __ZL95__struct_compiled_op_m4fd9084d0a7418c6bb054b6a21b061166e5c790e606c15cacfee00ea305e5252_executorPN12_GLOBAL__N_186__struct_compiled_op_m4fd9084d0a7418c6bb054b6a21b061166e5c790e606c15cacfee00ea305e5252E, symObjAddr: 0x3A0, symBinAddr: 0x47FC, symSize: 0x1604 }
  - { offsetInCU: 0xBA76, offset: 0xBA76, size: 0x8, addend: 0x0, symName: __ZL97__struct_compiled_op_m4fd9084d0a7418c6bb054b6a21b061166e5c790e606c15cacfee00ea305e5252_destructorP7_object, symObjAddr: 0x19A4, symBinAddr: 0x5E00, symSize: 0x108 }
  - { offsetInCU: 0xBAA2, offset: 0xBAA2, size: 0x8, addend: 0x0, symName: __ZL95__struct_compiled_op_m4fd9084d0a7418c6bb054b6a21b061166e5c790e606c15cacfee00ea305e5252_executorPN12_GLOBAL__N_186__struct_compiled_op_m4fd9084d0a7418c6bb054b6a21b061166e5c790e606c15cacfee00ea305e5252E.cold.1, symObjAddr: 0x3014, symBinAddr: 0x7470, symSize: 0x28 }
  - { offsetInCU: 0xBAD0, offset: 0xBAD0, size: 0x8, addend: 0x0, symName: __ZL95__struct_compiled_op_m4fd9084d0a7418c6bb054b6a21b061166e5c790e606c15cacfee00ea305e5252_executorPN12_GLOBAL__N_186__struct_compiled_op_m4fd9084d0a7418c6bb054b6a21b061166e5c790e606c15cacfee00ea305e5252E.cold.5, symObjAddr: 0x30B4, symBinAddr: 0x7510, symSize: 0x28 }
  - { offsetInCU: 0xBAFE, offset: 0xBAFE, size: 0x8, addend: 0x0, symName: __ZL95__struct_compiled_op_m4fd9084d0a7418c6bb054b6a21b061166e5c790e606c15cacfee00ea305e5252_executorPN12_GLOBAL__N_186__struct_compiled_op_m4fd9084d0a7418c6bb054b6a21b061166e5c790e606c15cacfee00ea305e5252E.cold.7, symObjAddr: 0x3104, symBinAddr: 0x7560, symSize: 0x28 }
  - { offsetInCU: 0xBB2C, offset: 0xBB2C, size: 0x8, addend: 0x0, symName: __ZL95__struct_compiled_op_m4fd9084d0a7418c6bb054b6a21b061166e5c790e606c15cacfee00ea305e5252_executorPN12_GLOBAL__N_186__struct_compiled_op_m4fd9084d0a7418c6bb054b6a21b061166e5c790e606c15cacfee00ea305e5252E.cold.8, symObjAddr: 0x312C, symBinAddr: 0x7588, symSize: 0x28 }
  - { offsetInCU: 0xBB71, offset: 0xBB71, size: 0x8, addend: 0x0, symName: __ZL95__struct_compiled_op_m4fd9084d0a7418c6bb054b6a21b061166e5c790e606c15cacfee00ea305e5252_executorPN12_GLOBAL__N_186__struct_compiled_op_m4fd9084d0a7418c6bb054b6a21b061166e5c790e606c15cacfee00ea305e5252E.cold.2, symObjAddr: 0x303C, symBinAddr: 0x7498, symSize: 0x28 }
  - { offsetInCU: 0xBB9F, offset: 0xBB9F, size: 0x8, addend: 0x0, symName: __ZL95__struct_compiled_op_m4fd9084d0a7418c6bb054b6a21b061166e5c790e606c15cacfee00ea305e5252_executorPN12_GLOBAL__N_186__struct_compiled_op_m4fd9084d0a7418c6bb054b6a21b061166e5c790e606c15cacfee00ea305e5252E.cold.3, symObjAddr: 0x3064, symBinAddr: 0x74C0, symSize: 0x28 }
  - { offsetInCU: 0xBBCD, offset: 0xBBCD, size: 0x8, addend: 0x0, symName: __ZL95__struct_compiled_op_m4fd9084d0a7418c6bb054b6a21b061166e5c790e606c15cacfee00ea305e5252_executorPN12_GLOBAL__N_186__struct_compiled_op_m4fd9084d0a7418c6bb054b6a21b061166e5c790e606c15cacfee00ea305e5252E.cold.4, symObjAddr: 0x308C, symBinAddr: 0x74E8, symSize: 0x28 }
  - { offsetInCU: 0xBBFB, offset: 0xBBFB, size: 0x8, addend: 0x0, symName: __ZL95__struct_compiled_op_m4fd9084d0a7418c6bb054b6a21b061166e5c790e606c15cacfee00ea305e5252_executorPN12_GLOBAL__N_186__struct_compiled_op_m4fd9084d0a7418c6bb054b6a21b061166e5c790e606c15cacfee00ea305e5252E.cold.6, symObjAddr: 0x30DC, symBinAddr: 0x7538, symSize: 0x28 }
  - { offsetInCU: 0xBC3A, offset: 0xBC3A, size: 0x8, addend: 0x0, symName: __ZL95__struct_compiled_op_m4fd9084d0a7418c6bb054b6a21b061166e5c790e606c15cacfee00ea305e5252_executorPN12_GLOBAL__N_186__struct_compiled_op_m4fd9084d0a7418c6bb054b6a21b061166e5c790e606c15cacfee00ea305e5252E.cold.9, symObjAddr: 0x3154, symBinAddr: 0x75B0, symSize: 0x28 }
  - { offsetInCU: 0xBC68, offset: 0xBC68, size: 0x8, addend: 0x0, symName: __ZL95__struct_compiled_op_m4fd9084d0a7418c6bb054b6a21b061166e5c790e606c15cacfee00ea305e5252_executorPN12_GLOBAL__N_186__struct_compiled_op_m4fd9084d0a7418c6bb054b6a21b061166e5c790e606c15cacfee00ea305e5252E.cold.10, symObjAddr: 0x317C, symBinAddr: 0x75D8, symSize: 0x28 }
  - { offsetInCU: 0xBC96, offset: 0xBC96, size: 0x8, addend: 0x0, symName: __ZL95__struct_compiled_op_m4fd9084d0a7418c6bb054b6a21b061166e5c790e606c15cacfee00ea305e5252_executorPN12_GLOBAL__N_186__struct_compiled_op_m4fd9084d0a7418c6bb054b6a21b061166e5c790e606c15cacfee00ea305e5252E.cold.11, symObjAddr: 0x31A4, symBinAddr: 0x7600, symSize: 0x28 }
  - { offsetInCU: 0xBDA6, offset: 0xBDA6, size: 0x8, addend: 0x0, symName: __ZL97__struct_compiled_op_m4fd9084d0a7418c6bb054b6a21b061166e5c790e606c15cacfee00ea305e5252_destructorP7_object, symObjAddr: 0x19A4, symBinAddr: 0x5E00, symSize: 0x108 }
...
