---
triple:          'arm64-apple-darwin'
binary-path:     '/Users/paulosoares/personal/phd/code/tomcat-coordination/.pytensor_compiles/compiledir_2024.10.16--21.28.53_1/tmp_x3msqxj/m9496a72e0e2dac1a2fdd0b8892f792bb9aeb2498b80b7c829b810b0d8e94568c.so'
relocations:
  - { offsetInCU: 0x26, offset: 0x26, size: 0x8, addend: 0x0, symName: __Z30alt_numpy_memset_inplace_floatP16tagPyArrayObjectPKf, symObjAddr: 0x0, symBinAddr: 0x30B4, symSize: 0x190 }
  - { offsetInCU: 0x53, offset: 0x53, size: 0x8, addend: 0x0, symName: __ZL11PyArray_API, symObjAddr: 0x1D838, symBinAddr: 0xC158, symSize: 0x0 }
  - { offsetInCU: 0x73, offset: 0x73, size: 0x8, addend: 0x0, symName: __ZL9moduledef, symObjAddr: 0x4CD0, symBinAddr: 0xC0B0, symSize: 0x0 }
  - { offsetInCU: 0xC86, offset: 0xC86, size: 0x8, addend: 0x0, symName: __ZL9MyMethods, symObjAddr: 0x4D38, symBinAddr: 0xC118, symSize: 0x0 }
  - { offsetInCU: 0x3B46, offset: 0x3B46, size: 0x8, addend: 0x0, symName: __Z30alt_numpy_memset_inplace_floatP16tagPyArrayObjectPKf, symObjAddr: 0x0, symBinAddr: 0x30B4, symSize: 0x190 }
  - { offsetInCU: 0x3CC1, offset: 0x3CC1, size: 0x8, addend: 0x0, symName: __Z36alt_numpy_scale_matrix_inplace_floatPKfP16tagPyArrayObject, symObjAddr: 0x190, symBinAddr: 0x3244, symSize: 0x184 }
  - { offsetInCU: 0x3E3E, offset: 0x3E3E, size: 0x8, addend: 0x0, symName: __Z43alt_numpy_matrix_extended_sum_inplace_floatPKfP16tagPyArrayObjectS0_S2_, symObjAddr: 0x314, symBinAddr: 0x33C8, symSize: 0x1F8 }
  - { offsetInCU: 0x400F, offset: 0x400F, size: 0x8, addend: 0x0, symName: __Z12alt_op_floatiPfiiii, symObjAddr: 0x50C, symBinAddr: 0x35C0, symSize: 0xBC }
  - { offsetInCU: 0x41A6, offset: 0x41A6, size: 0x8, addend: 0x0, symName: __Z6sgemm_PcS_PKiS1_S1_PKfPfS1_S4_S1_S3_S4_S1_, symObjAddr: 0x5C8, symBinAddr: 0x367C, symSize: 0x4CC }
  - { offsetInCU: 0x47B1, offset: 0x47B1, size: 0x8, addend: 0x0, symName: __Z6sgemv_PcPKiS1_PKfPfS1_S4_S1_S3_S4_S1_, symObjAddr: 0xA94, symBinAddr: 0x3B48, symSize: 0x4F8 }
  - { offsetInCU: 0x4CEE, offset: 0x4CEE, size: 0x8, addend: 0x0, symName: __Z5sdot_PKiPfS0_S1_S0_, symObjAddr: 0xF8C, symBinAddr: 0x4040, symSize: 0x2D4 }
  - { offsetInCU: 0x5045, offset: 0x5045, size: 0x8, addend: 0x0, symName: __Z31alt_numpy_memset_inplace_doubleP16tagPyArrayObjectPKd, symObjAddr: 0x1260, symBinAddr: 0x4314, symSize: 0x190 }
  - { offsetInCU: 0x51B9, offset: 0x51B9, size: 0x8, addend: 0x0, symName: __Z37alt_numpy_scale_matrix_inplace_doublePKdP16tagPyArrayObject, symObjAddr: 0x13F0, symBinAddr: 0x44A4, symSize: 0x184 }
  - { offsetInCU: 0x5336, offset: 0x5336, size: 0x8, addend: 0x0, symName: __Z44alt_numpy_matrix_extended_sum_inplace_doublePKdP16tagPyArrayObjectS0_S2_, symObjAddr: 0x1574, symBinAddr: 0x4628, symSize: 0x1F8 }
  - { offsetInCU: 0x5507, offset: 0x5507, size: 0x8, addend: 0x0, symName: __Z13alt_op_doubleiPdiiii, symObjAddr: 0x176C, symBinAddr: 0x4820, symSize: 0xBC }
  - { offsetInCU: 0x5654, offset: 0x5654, size: 0x8, addend: 0x0, symName: __Z6dgemm_PcS_PKiS1_S1_PKdPdS1_S4_S1_S3_S4_S1_, symObjAddr: 0x1828, symBinAddr: 0x48DC, symSize: 0x4CC }
  - { offsetInCU: 0x5C5F, offset: 0x5C5F, size: 0x8, addend: 0x0, symName: __Z6dgemv_PcPKiS1_PKdPdS1_S4_S1_S3_S4_S1_, symObjAddr: 0x1CF4, symBinAddr: 0x4DA8, symSize: 0x4F8 }
  - { offsetInCU: 0x619C, offset: 0x619C, size: 0x8, addend: 0x0, symName: __Z5ddot_PKiPdS0_S1_S0_, symObjAddr: 0x21EC, symBinAddr: 0x52A0, symSize: 0x2D4 }
  - { offsetInCU: 0x6552, offset: 0x6552, size: 0x8, addend: 0x0, symName: _PyInit_m9496a72e0e2dac1a2fdd0b8892f792bb9aeb2498b80b7c829b810b0d8e94568c, symObjAddr: 0x24C0, symBinAddr: 0x5574, symSize: 0x224 }
  - { offsetInCU: 0x67C2, offset: 0x67C2, size: 0x8, addend: 0x0, symName: __ZL11instantiateP7_objectS0_, symObjAddr: 0x26E4, symBinAddr: 0x5798, symSize: 0x120 }
  - { offsetInCU: 0x6999, offset: 0x6999, size: 0x8, addend: 0x0, symName: __ZL95__struct_compiled_op_m9496a72e0e2dac1a2fdd0b8892f792bb9aeb2498b80b7c829b810b0d8e94568c_executorPN12_GLOBAL__N_186__struct_compiled_op_m9496a72e0e2dac1a2fdd0b8892f792bb9aeb2498b80b7c829b810b0d8e94568cE, symObjAddr: 0x2804, symBinAddr: 0x58B8, symSize: 0xF20 }
  - { offsetInCU: 0x69F7, offset: 0x69F7, size: 0x8, addend: 0x0, symName: __ZL11instantiateP7_objectS0_.cold.1, symObjAddr: 0x3CF4, symBinAddr: 0x6DA8, symSize: 0x28 }
  - { offsetInCU: 0x6A0E, offset: 0x6A0E, size: 0x8, addend: 0x0, symName: __ZL11instantiateP7_objectS0_.cold.2, symObjAddr: 0x3D1C, symBinAddr: 0x6DD0, symSize: 0x28 }
  - { offsetInCU: 0x6BD9, offset: 0x6BD9, size: 0x8, addend: 0x0, symName: __ZL95__struct_compiled_op_m9496a72e0e2dac1a2fdd0b8892f792bb9aeb2498b80b7c829b810b0d8e94568c_executorPN12_GLOBAL__N_186__struct_compiled_op_m9496a72e0e2dac1a2fdd0b8892f792bb9aeb2498b80b7c829b810b0d8e94568cE, symObjAddr: 0x2804, symBinAddr: 0x58B8, symSize: 0xF20 }
  - { offsetInCU: 0x7662, offset: 0x7662, size: 0x8, addend: 0x0, symName: __ZL95__struct_compiled_op_m9496a72e0e2dac1a2fdd0b8892f792bb9aeb2498b80b7c829b810b0d8e94568c_executorPN12_GLOBAL__N_186__struct_compiled_op_m9496a72e0e2dac1a2fdd0b8892f792bb9aeb2498b80b7c829b810b0d8e94568cE.cold.2, symObjAddr: 0x3D6C, symBinAddr: 0x6E20, symSize: 0x28 }
  - { offsetInCU: 0x768F, offset: 0x768F, size: 0x8, addend: 0x0, symName: __ZL95__struct_compiled_op_m9496a72e0e2dac1a2fdd0b8892f792bb9aeb2498b80b7c829b810b0d8e94568c_executorPN12_GLOBAL__N_186__struct_compiled_op_m9496a72e0e2dac1a2fdd0b8892f792bb9aeb2498b80b7c829b810b0d8e94568cE.cold.1, symObjAddr: 0x3D44, symBinAddr: 0x6DF8, symSize: 0x28 }
  - { offsetInCU: 0x76BC, offset: 0x76BC, size: 0x8, addend: 0x0, symName: __ZL95__struct_compiled_op_m9496a72e0e2dac1a2fdd0b8892f792bb9aeb2498b80b7c829b810b0d8e94568c_executorPN12_GLOBAL__N_186__struct_compiled_op_m9496a72e0e2dac1a2fdd0b8892f792bb9aeb2498b80b7c829b810b0d8e94568cE.cold.3, symObjAddr: 0x3D94, symBinAddr: 0x6E48, symSize: 0x28 }
  - { offsetInCU: 0x76E9, offset: 0x76E9, size: 0x8, addend: 0x0, symName: __ZL95__struct_compiled_op_m9496a72e0e2dac1a2fdd0b8892f792bb9aeb2498b80b7c829b810b0d8e94568c_executorPN12_GLOBAL__N_186__struct_compiled_op_m9496a72e0e2dac1a2fdd0b8892f792bb9aeb2498b80b7c829b810b0d8e94568cE.cold.4, symObjAddr: 0x3DBC, symBinAddr: 0x6E70, symSize: 0x28 }
  - { offsetInCU: 0x7716, offset: 0x7716, size: 0x8, addend: 0x0, symName: __ZL95__struct_compiled_op_m9496a72e0e2dac1a2fdd0b8892f792bb9aeb2498b80b7c829b810b0d8e94568c_executorPN12_GLOBAL__N_186__struct_compiled_op_m9496a72e0e2dac1a2fdd0b8892f792bb9aeb2498b80b7c829b810b0d8e94568cE.cold.5, symObjAddr: 0x3DE4, symBinAddr: 0x6E98, symSize: 0x28 }
  - { offsetInCU: 0x7743, offset: 0x7743, size: 0x8, addend: 0x0, symName: __Z10batch_gemmIdEbPFvPcS0_PKiS2_S2_PKT_S5_S2_S5_S2_S5_PS3_S2_EiP16tagPyArrayObjectSA_SA_, symObjAddr: 0x37BC, symBinAddr: 0x6870, symSize: 0x538 }
  - { offsetInCU: 0x7966, offset: 0x7966, size: 0x8, addend: 0x0, symName: __ZL95__struct_compiled_op_m9496a72e0e2dac1a2fdd0b8892f792bb9aeb2498b80b7c829b810b0d8e94568c_executorPN12_GLOBAL__N_186__struct_compiled_op_m9496a72e0e2dac1a2fdd0b8892f792bb9aeb2498b80b7c829b810b0d8e94568cE.cold.6, symObjAddr: 0x3E0C, symBinAddr: 0x6EC0, symSize: 0x28 }
  - { offsetInCU: 0x7993, offset: 0x7993, size: 0x8, addend: 0x0, symName: __ZL95__struct_compiled_op_m9496a72e0e2dac1a2fdd0b8892f792bb9aeb2498b80b7c829b810b0d8e94568c_executorPN12_GLOBAL__N_186__struct_compiled_op_m9496a72e0e2dac1a2fdd0b8892f792bb9aeb2498b80b7c829b810b0d8e94568cE.cold.7, symObjAddr: 0x3E34, symBinAddr: 0x6EE8, symSize: 0x28 }
  - { offsetInCU: 0x7A54, offset: 0x7A54, size: 0x8, addend: 0x0, symName: __ZL97__struct_compiled_op_m9496a72e0e2dac1a2fdd0b8892f792bb9aeb2498b80b7c829b810b0d8e94568c_destructorP7_object, symObjAddr: 0x3724, symBinAddr: 0x67D8, symSize: 0x98 }
...
