---
triple:          'arm64-apple-darwin'
binary-path:     '/Users/paulosoares/personal/phd/code/tomcat-coordination/.pytensor_compiles/compiledir_2024.10.16--21.28.53_1/tmpins5fjl8/mda6805f129c7933bc5f7086590dc55ce2e9fe7878152839bace1f2cbd7295c09.so'
relocations:
  - { offsetInCU: 0x26, offset: 0x26, size: 0x8, addend: 0x0, symName: _PyInit_mda6805f129c7933bc5f7086590dc55ce2e9fe7878152839bace1f2cbd7295c09, symObjAddr: 0x0, symBinAddr: 0x12CC, symSize: 0x224 }
  - { offsetInCU: 0x53, offset: 0x53, size: 0x8, addend: 0x0, symName: __ZL11PyArray_API, symObjAddr: 0x158F0, symBinAddr: 0x8148, symSize: 0x0 }
  - { offsetInCU: 0x73, offset: 0x73, size: 0x8, addend: 0x0, symName: __ZL9moduledef, symObjAddr: 0x2A30, symBinAddr: 0x80A0, symSize: 0x0 }
  - { offsetInCU: 0xC86, offset: 0xC86, size: 0x8, addend: 0x0, symName: __ZL9MyMethods, symObjAddr: 0x2A98, symBinAddr: 0x8108, symSize: 0x0 }
  - { offsetInCU: 0xCAC, offset: 0xCAC, size: 0x8, addend: 0x0, symName: __ZL14addition_funcs, symObjAddr: 0x2AD8, symBinAddr: 0x4068, symSize: 0x0 }
  - { offsetInCU: 0x46AD, offset: 0x46AD, size: 0x8, addend: 0x0, symName: _PyInit_mda6805f129c7933bc5f7086590dc55ce2e9fe7878152839bace1f2cbd7295c09, symObjAddr: 0x0, symBinAddr: 0x12CC, symSize: 0x224 }
  - { offsetInCU: 0x4A62, offset: 0x4A62, size: 0x8, addend: 0x0, symName: __ZL11instantiateP7_objectS0_, symObjAddr: 0x224, symBinAddr: 0x14F0, symSize: 0x37C }
  - { offsetInCU: 0x4F66, offset: 0x4F66, size: 0x8, addend: 0x0, symName: __ZN12_GLOBAL__N_186__struct_compiled_op_mda6805f129c7933bc5f7086590dc55ce2e9fe7878152839bace1f2cbd7295c09D1Ev, symObjAddr: 0x5A0, symBinAddr: 0x186C, symSize: 0x10C }
  - { offsetInCU: 0x4FB8, offset: 0x4FB8, size: 0x8, addend: 0x0, symName: __ZN12_GLOBAL__N_186__struct_compiled_op_mda6805f129c7933bc5f7086590dc55ce2e9fe7878152839bace1f2cbd7295c09D1Ev, symObjAddr: 0x5A0, symBinAddr: 0x186C, symSize: 0x10C }
  - { offsetInCU: 0x51C4, offset: 0x51C4, size: 0x8, addend: 0x0, symName: __ZL11instantiateP7_objectS0_.cold.1, symObjAddr: 0x22A0, symBinAddr: 0x356C, symSize: 0x28 }
  - { offsetInCU: 0x51DB, offset: 0x51DB, size: 0x8, addend: 0x0, symName: __ZL11instantiateP7_objectS0_.cold.2, symObjAddr: 0x22C8, symBinAddr: 0x3594, symSize: 0x28 }
  - { offsetInCU: 0x51F2, offset: 0x51F2, size: 0x8, addend: 0x0, symName: __ZL11instantiateP7_objectS0_.cold.3, symObjAddr: 0x22F0, symBinAddr: 0x35BC, symSize: 0x28 }
  - { offsetInCU: 0x5525, offset: 0x5525, size: 0x8, addend: 0x0, symName: __ZL95__struct_compiled_op_mda6805f129c7933bc5f7086590dc55ce2e9fe7878152839bace1f2cbd7295c09_executorPN12_GLOBAL__N_186__struct_compiled_op_mda6805f129c7933bc5f7086590dc55ce2e9fe7878152839bace1f2cbd7295c09E, symObjAddr: 0x6AC, symBinAddr: 0x1978, symSize: 0x880 }
  - { offsetInCU: 0x5F4B, offset: 0x5F4B, size: 0x8, addend: 0x0, symName: __ZL97__struct_compiled_op_mda6805f129c7933bc5f7086590dc55ce2e9fe7878152839bace1f2cbd7295c09_destructorP7_object, symObjAddr: 0xF2C, symBinAddr: 0x21F8, symSize: 0x24 }
  - { offsetInCU: 0x5F55, offset: 0x5F55, size: 0x8, addend: 0x0, symName: __ZL95__struct_compiled_op_mda6805f129c7933bc5f7086590dc55ce2e9fe7878152839bace1f2cbd7295c09_executorPN12_GLOBAL__N_186__struct_compiled_op_mda6805f129c7933bc5f7086590dc55ce2e9fe7878152839bace1f2cbd7295c09E.cold.2, symObjAddr: 0x2340, symBinAddr: 0x360C, symSize: 0x28 }
  - { offsetInCU: 0x5F99, offset: 0x5F99, size: 0x8, addend: 0x0, symName: __ZL95__struct_compiled_op_mda6805f129c7933bc5f7086590dc55ce2e9fe7878152839bace1f2cbd7295c09_executorPN12_GLOBAL__N_186__struct_compiled_op_mda6805f129c7933bc5f7086590dc55ce2e9fe7878152839bace1f2cbd7295c09E.cold.6, symObjAddr: 0x23E0, symBinAddr: 0x36AC, symSize: 0x28 }
  - { offsetInCU: 0x5FC6, offset: 0x5FC6, size: 0x8, addend: 0x0, symName: __ZL95__struct_compiled_op_mda6805f129c7933bc5f7086590dc55ce2e9fe7878152839bace1f2cbd7295c09_executorPN12_GLOBAL__N_186__struct_compiled_op_mda6805f129c7933bc5f7086590dc55ce2e9fe7878152839bace1f2cbd7295c09E.cold.1, symObjAddr: 0x2318, symBinAddr: 0x35E4, symSize: 0x28 }
  - { offsetInCU: 0x5FF3, offset: 0x5FF3, size: 0x8, addend: 0x0, symName: __ZL95__struct_compiled_op_mda6805f129c7933bc5f7086590dc55ce2e9fe7878152839bace1f2cbd7295c09_executorPN12_GLOBAL__N_186__struct_compiled_op_mda6805f129c7933bc5f7086590dc55ce2e9fe7878152839bace1f2cbd7295c09E.cold.3, symObjAddr: 0x2368, symBinAddr: 0x3634, symSize: 0x28 }
  - { offsetInCU: 0x6020, offset: 0x6020, size: 0x8, addend: 0x0, symName: __ZL95__struct_compiled_op_mda6805f129c7933bc5f7086590dc55ce2e9fe7878152839bace1f2cbd7295c09_executorPN12_GLOBAL__N_186__struct_compiled_op_mda6805f129c7933bc5f7086590dc55ce2e9fe7878152839bace1f2cbd7295c09E.cold.4, symObjAddr: 0x2390, symBinAddr: 0x365C, symSize: 0x28 }
  - { offsetInCU: 0x604D, offset: 0x604D, size: 0x8, addend: 0x0, symName: __ZL95__struct_compiled_op_mda6805f129c7933bc5f7086590dc55ce2e9fe7878152839bace1f2cbd7295c09_executorPN12_GLOBAL__N_186__struct_compiled_op_mda6805f129c7933bc5f7086590dc55ce2e9fe7878152839bace1f2cbd7295c09E.cold.7, symObjAddr: 0x2408, symBinAddr: 0x36D4, symSize: 0x28 }
  - { offsetInCU: 0x607A, offset: 0x607A, size: 0x8, addend: 0x0, symName: __ZL95__struct_compiled_op_mda6805f129c7933bc5f7086590dc55ce2e9fe7878152839bace1f2cbd7295c09_executorPN12_GLOBAL__N_186__struct_compiled_op_mda6805f129c7933bc5f7086590dc55ce2e9fe7878152839bace1f2cbd7295c09E.cold.8, symObjAddr: 0x2430, symBinAddr: 0x36FC, symSize: 0x28 }
  - { offsetInCU: 0x60A7, offset: 0x60A7, size: 0x8, addend: 0x0, symName: __ZL95__struct_compiled_op_mda6805f129c7933bc5f7086590dc55ce2e9fe7878152839bace1f2cbd7295c09_executorPN12_GLOBAL__N_186__struct_compiled_op_mda6805f129c7933bc5f7086590dc55ce2e9fe7878152839bace1f2cbd7295c09E.cold.5, symObjAddr: 0x23B8, symBinAddr: 0x3684, symSize: 0x28 }
  - { offsetInCU: 0x60D4, offset: 0x60D4, size: 0x8, addend: 0x0, symName: __ZL97__struct_compiled_op_mda6805f129c7933bc5f7086590dc55ce2e9fe7878152839bace1f2cbd7295c09_destructorP7_object, symObjAddr: 0xF2C, symBinAddr: 0x21F8, symSize: 0x24 }
  - { offsetInCU: 0x6142, offset: 0x6142, size: 0x8, addend: 0x0, symName: __ZL20npy_int8_inplace_addP20PyArrayMapIterObjectP21PyArrayIterObject_tagi, symObjAddr: 0xF50, symBinAddr: 0x221C, symSize: 0x178 }
  - { offsetInCU: 0x61BF, offset: 0x61BF, size: 0x8, addend: 0x0, symName: __ZL21npy_int16_inplace_addP20PyArrayMapIterObjectP21PyArrayIterObject_tagi, symObjAddr: 0x10C8, symBinAddr: 0x2394, symSize: 0x178 }
  - { offsetInCU: 0x623C, offset: 0x623C, size: 0x8, addend: 0x0, symName: __ZL21npy_int32_inplace_addP20PyArrayMapIterObjectP21PyArrayIterObject_tagi, symObjAddr: 0x1240, symBinAddr: 0x250C, symSize: 0x178 }
  - { offsetInCU: 0x62B9, offset: 0x62B9, size: 0x8, addend: 0x0, symName: __ZL21npy_int64_inplace_addP20PyArrayMapIterObjectP21PyArrayIterObject_tagi, symObjAddr: 0x13B8, symBinAddr: 0x2684, symSize: 0x178 }
  - { offsetInCU: 0x6336, offset: 0x6336, size: 0x8, addend: 0x0, symName: __ZL21npy_uint8_inplace_addP20PyArrayMapIterObjectP21PyArrayIterObject_tagi, symObjAddr: 0x1530, symBinAddr: 0x27FC, symSize: 0x178 }
  - { offsetInCU: 0x63B3, offset: 0x63B3, size: 0x8, addend: 0x0, symName: __ZL22npy_uint16_inplace_addP20PyArrayMapIterObjectP21PyArrayIterObject_tagi, symObjAddr: 0x16A8, symBinAddr: 0x2974, symSize: 0x178 }
  - { offsetInCU: 0x6430, offset: 0x6430, size: 0x8, addend: 0x0, symName: __ZL22npy_uint32_inplace_addP20PyArrayMapIterObjectP21PyArrayIterObject_tagi, symObjAddr: 0x1820, symBinAddr: 0x2AEC, symSize: 0x178 }
  - { offsetInCU: 0x64AD, offset: 0x64AD, size: 0x8, addend: 0x0, symName: __ZL22npy_uint64_inplace_addP20PyArrayMapIterObjectP21PyArrayIterObject_tagi, symObjAddr: 0x1998, symBinAddr: 0x2C64, symSize: 0x178 }
  - { offsetInCU: 0x652A, offset: 0x652A, size: 0x8, addend: 0x0, symName: __ZL23npy_float16_inplace_addP20PyArrayMapIterObjectP21PyArrayIterObject_tagi, symObjAddr: 0x1B10, symBinAddr: 0x2DDC, symSize: 0x178 }
  - { offsetInCU: 0x65A7, offset: 0x65A7, size: 0x8, addend: 0x0, symName: __ZL23npy_float32_inplace_addP20PyArrayMapIterObjectP21PyArrayIterObject_tagi, symObjAddr: 0x1C88, symBinAddr: 0x2F54, symSize: 0x178 }
  - { offsetInCU: 0x6624, offset: 0x6624, size: 0x8, addend: 0x0, symName: __ZL23npy_float64_inplace_addP20PyArrayMapIterObjectP21PyArrayIterObject_tagi, symObjAddr: 0x1E00, symBinAddr: 0x30CC, symSize: 0x178 }
  - { offsetInCU: 0x66A3, offset: 0x66A3, size: 0x8, addend: 0x0, symName: __ZL25npy_complex64_inplace_addP20PyArrayMapIterObjectP21PyArrayIterObject_tagi, symObjAddr: 0x1F78, symBinAddr: 0x3244, symSize: 0x194 }
  - { offsetInCU: 0x6726, offset: 0x6726, size: 0x8, addend: 0x0, symName: __ZL26npy_complex128_inplace_addP20PyArrayMapIterObjectP21PyArrayIterObject_tagi, symObjAddr: 0x210C, symBinAddr: 0x33D8, symSize: 0x194 }
...
