---
triple:          'arm64-apple-darwin'
binary-path:     '/Users/paulosoares/personal/phd/code/tomcat-coordination/.pytensor_compiles/compiledir_2024.10.16--21.28.53_0/tmpjoq94rpw/m9884ef84651cd4f672203ac697fde7ef2992603d11de4da2642d3f3f6ca9a258.so'
relocations:
  - { offsetInCU: 0x26, offset: 0x26, size: 0x8, addend: 0x0, symName: _PyInit_m9884ef84651cd4f672203ac697fde7ef2992603d11de4da2642d3f3f6ca9a258, symObjAddr: 0x0, symBinAddr: 0xAC4, symSize: 0x224 }
  - { offsetInCU: 0x53, offset: 0x53, size: 0x8, addend: 0x0, symName: __ZL11PyArray_API, symObjAddr: 0x298A0, symBinAddr: 0x8140, symSize: 0x0 }
  - { offsetInCU: 0x73, offset: 0x73, size: 0x8, addend: 0x0, symName: __ZL9moduledef, symObjAddr: 0x3308, symBinAddr: 0x8098, symSize: 0x0 }
  - { offsetInCU: 0xC86, offset: 0xC86, size: 0x8, addend: 0x0, symName: __ZL9MyMethods, symObjAddr: 0x3370, symBinAddr: 0x8100, symSize: 0x0 }
  - { offsetInCU: 0x20BF, offset: 0x20BF, size: 0x8, addend: 0x0, symName: __ZNSt3__111__sift_downB8un170006INS_17_ClassicAlgPolicyERNS_6__lessIvvEENS_16reverse_iteratorINS_11__wrap_iterIPNS_4pairIiiEEEEEEEEvT1_OT0_NS_15iterator_traitsISC_E15difference_typeESC_, symObjAddr: 0x1690, symBinAddr: 0x2154, symSize: 0x130 }
  - { offsetInCU: 0x23D3, offset: 0x23D3, size: 0x8, addend: 0x0, symName: __ZNSt3__111__introsortINS_17_ClassicAlgPolicyERNS_6__lessIvvEENS_16reverse_iteratorINS_11__wrap_iterIPNS_4pairIiiEEEEEELb0EEEvT1_SC_T0_NS_15iterator_traitsISC_E15difference_typeEb, symObjAddr: 0x191C, symBinAddr: 0x23E0, symSize: 0x760 }
  - { offsetInCU: 0x3667, offset: 0x3667, size: 0x8, addend: 0x0, symName: __ZNSt3__131__partition_with_equals_on_leftB8un170006INS_17_ClassicAlgPolicyENS_16reverse_iteratorINS_11__wrap_iterIPNS_4pairIiiEEEEEERNS_6__lessIvvEEEET0_SC_SC_T1_, symObjAddr: 0x2210, symBinAddr: 0x2CD4, symSize: 0x18C }
  - { offsetInCU: 0x39E5, offset: 0x39E5, size: 0x8, addend: 0x0, symName: __ZNSt3__132__partition_with_equals_on_rightB8un170006INS_17_ClassicAlgPolicyENS_16reverse_iteratorINS_11__wrap_iterIPNS_4pairIiiEEEEEERNS_6__lessIvvEEEENS4_IT0_bEESC_SC_T1_, symObjAddr: 0x239C, symBinAddr: 0x2E60, symSize: 0x150 }
  - { offsetInCU: 0x3DFB, offset: 0x3DFB, size: 0x8, addend: 0x0, symName: __ZNSt3__127__insertion_sort_incompleteB8un170006INS_17_ClassicAlgPolicyERNS_6__lessIvvEENS_16reverse_iteratorINS_11__wrap_iterIPNS_4pairIiiEEEEEEEEbT1_SC_T0_, symObjAddr: 0x24EC, symBinAddr: 0x2FB0, symSize: 0x334 }
  - { offsetInCU: 0x5A5E, offset: 0x5A5E, size: 0x8, addend: 0x0, symName: __ZNSt3__119__partial_sort_implB8un170006INS_17_ClassicAlgPolicyERNS_6__lessIvvEENS_16reverse_iteratorINS_11__wrap_iterIPNS_4pairIiiEEEEEESB_EET1_SC_SC_T2_OT0_, symObjAddr: 0x1524, symBinAddr: 0x1FE8, symSize: 0x16C }
  - { offsetInCU: 0x5DB1, offset: 0x5DB1, size: 0x8, addend: 0x0, symName: __ZNSt3__110__pop_heapB8un170006INS_17_ClassicAlgPolicyENS_6__lessIvvEENS_16reverse_iteratorINS_11__wrap_iterIPNS_4pairIiiEEEEEEEEvT1_SB_RT0_NS_15iterator_traitsISB_E15difference_typeE, symObjAddr: 0x17C0, symBinAddr: 0x2284, symSize: 0x15C }
  - { offsetInCU: 0x664C, offset: 0x664C, size: 0x8, addend: 0x0, symName: __ZNSt3__17__sort3B8un170006INS_17_ClassicAlgPolicyERNS_6__lessIvvEENS_16reverse_iteratorINS_11__wrap_iterIPNS_4pairIiiEEEEEEEEjT1_SC_SC_T0_, symObjAddr: 0x207C, symBinAddr: 0x2B40, symSize: 0x194 }
  - { offsetInCU: 0x66B6, offset: 0x66B6, size: 0x8, addend: 0x0, symName: __ZNSt3__17__sort3B8un170006INS_17_ClassicAlgPolicyERNS_6__lessIvvEENS_16reverse_iteratorINS_11__wrap_iterIPNS_4pairIiiEEEEEEEEjT1_SC_SC_T0_, symObjAddr: 0x207C, symBinAddr: 0x2B40, symSize: 0x194 }
  - { offsetInCU: 0x66DC, offset: 0x66DC, size: 0x8, addend: 0x0, symName: __ZNSt3__17__sort3B8un170006INS_17_ClassicAlgPolicyERNS_6__lessIvvEENS_16reverse_iteratorINS_11__wrap_iterIPNS_4pairIiiEEEEEEEEjT1_SC_SC_T0_, symObjAddr: 0x207C, symBinAddr: 0x2B40, symSize: 0x194 }
  - { offsetInCU: 0x6AFA, offset: 0x6AFA, size: 0x8, addend: 0x0, symName: __ZNSt3__17__sort5B8un170006INS_17_ClassicAlgPolicyERNS_6__lessIvvEENS_16reverse_iteratorINS_11__wrap_iterIPNS_4pairIiiEEEEEEEEvT1_SC_SC_SC_SC_T0_, symObjAddr: 0x2820, symBinAddr: 0x32E4, symSize: 0x21C }
  - { offsetInCU: 0x9AB7, offset: 0x9AB7, size: 0x8, addend: 0x0, symName: _PyInit_m9884ef84651cd4f672203ac697fde7ef2992603d11de4da2642d3f3f6ca9a258, symObjAddr: 0x0, symBinAddr: 0xAC4, symSize: 0x224 }
  - { offsetInCU: 0x9D3D, offset: 0x9D3D, size: 0x8, addend: 0x0, symName: __ZL11instantiateP7_objectS0_, symObjAddr: 0x224, symBinAddr: 0xCE8, symSize: 0x120 }
  - { offsetInCU: 0x9F29, offset: 0x9F29, size: 0x8, addend: 0x0, symName: __ZL95__struct_compiled_op_m9884ef84651cd4f672203ac697fde7ef2992603d11de4da2642d3f3f6ca9a258_executorPN12_GLOBAL__N_186__struct_compiled_op_m9884ef84651cd4f672203ac697fde7ef2992603d11de4da2642d3f3f6ca9a258E, symObjAddr: 0x344, symBinAddr: 0xE08, symSize: 0x1148 }
  - { offsetInCU: 0x9F9E, offset: 0x9F9E, size: 0x8, addend: 0x0, symName: __ZL11instantiateP7_objectS0_.cold.1, symObjAddr: 0x2A3C, symBinAddr: 0x3500, symSize: 0x28 }
  - { offsetInCU: 0x9FB6, offset: 0x9FB6, size: 0x8, addend: 0x0, symName: __ZL11instantiateP7_objectS0_.cold.2, symObjAddr: 0x2A64, symBinAddr: 0x3528, symSize: 0x28 }
  - { offsetInCU: 0xA4E7, offset: 0xA4E7, size: 0x8, addend: 0x0, symName: __ZL95__struct_compiled_op_m9884ef84651cd4f672203ac697fde7ef2992603d11de4da2642d3f3f6ca9a258_executorPN12_GLOBAL__N_186__struct_compiled_op_m9884ef84651cd4f672203ac697fde7ef2992603d11de4da2642d3f3f6ca9a258E, symObjAddr: 0x344, symBinAddr: 0xE08, symSize: 0x1148 }
  - { offsetInCU: 0xB1E7, offset: 0xB1E7, size: 0x8, addend: 0x0, symName: __ZL95__struct_compiled_op_m9884ef84651cd4f672203ac697fde7ef2992603d11de4da2642d3f3f6ca9a258_executorPN12_GLOBAL__N_186__struct_compiled_op_m9884ef84651cd4f672203ac697fde7ef2992603d11de4da2642d3f3f6ca9a258E.cold.5, symObjAddr: 0x2B2C, symBinAddr: 0x35F0, symSize: 0x28 }
  - { offsetInCU: 0xB215, offset: 0xB215, size: 0x8, addend: 0x0, symName: __ZL95__struct_compiled_op_m9884ef84651cd4f672203ac697fde7ef2992603d11de4da2642d3f3f6ca9a258_executorPN12_GLOBAL__N_186__struct_compiled_op_m9884ef84651cd4f672203ac697fde7ef2992603d11de4da2642d3f3f6ca9a258E.cold.1, symObjAddr: 0x2A8C, symBinAddr: 0x3550, symSize: 0x28 }
  - { offsetInCU: 0xB26B, offset: 0xB26B, size: 0x8, addend: 0x0, symName: __ZL95__struct_compiled_op_m9884ef84651cd4f672203ac697fde7ef2992603d11de4da2642d3f3f6ca9a258_executorPN12_GLOBAL__N_186__struct_compiled_op_m9884ef84651cd4f672203ac697fde7ef2992603d11de4da2642d3f3f6ca9a258E.cold.2, symObjAddr: 0x2AB4, symBinAddr: 0x3578, symSize: 0x28 }
  - { offsetInCU: 0xB299, offset: 0xB299, size: 0x8, addend: 0x0, symName: __ZL95__struct_compiled_op_m9884ef84651cd4f672203ac697fde7ef2992603d11de4da2642d3f3f6ca9a258_executorPN12_GLOBAL__N_186__struct_compiled_op_m9884ef84651cd4f672203ac697fde7ef2992603d11de4da2642d3f3f6ca9a258E.cold.3, symObjAddr: 0x2ADC, symBinAddr: 0x35A0, symSize: 0x28 }
  - { offsetInCU: 0xB2C7, offset: 0xB2C7, size: 0x8, addend: 0x0, symName: __ZL95__struct_compiled_op_m9884ef84651cd4f672203ac697fde7ef2992603d11de4da2642d3f3f6ca9a258_executorPN12_GLOBAL__N_186__struct_compiled_op_m9884ef84651cd4f672203ac697fde7ef2992603d11de4da2642d3f3f6ca9a258E.cold.4, symObjAddr: 0x2B04, symBinAddr: 0x35C8, symSize: 0x28 }
  - { offsetInCU: 0xB2F5, offset: 0xB2F5, size: 0x8, addend: 0x0, symName: __ZL95__struct_compiled_op_m9884ef84651cd4f672203ac697fde7ef2992603d11de4da2642d3f3f6ca9a258_executorPN12_GLOBAL__N_186__struct_compiled_op_m9884ef84651cd4f672203ac697fde7ef2992603d11de4da2642d3f3f6ca9a258E.cold.6, symObjAddr: 0x2B54, symBinAddr: 0x3618, symSize: 0x28 }
  - { offsetInCU: 0xB323, offset: 0xB323, size: 0x8, addend: 0x0, symName: __ZL95__struct_compiled_op_m9884ef84651cd4f672203ac697fde7ef2992603d11de4da2642d3f3f6ca9a258_executorPN12_GLOBAL__N_186__struct_compiled_op_m9884ef84651cd4f672203ac697fde7ef2992603d11de4da2642d3f3f6ca9a258E.cold.7, symObjAddr: 0x2B7C, symBinAddr: 0x3640, symSize: 0x28 }
  - { offsetInCU: 0xB3E7, offset: 0xB3E7, size: 0x8, addend: 0x0, symName: __ZL97__struct_compiled_op_m9884ef84651cd4f672203ac697fde7ef2992603d11de4da2642d3f3f6ca9a258_destructorP7_object, symObjAddr: 0x148C, symBinAddr: 0x1F50, symSize: 0x98 }
...
