---
triple:          'arm64-apple-darwin'
binary-path:     '/Users/paulosoares/personal/phd/code/tomcat-coordination/.pytensor_compiles/compiledir_2024.10.16--21.29.11_0/tmpidvs2mpp/m74ef9b94690145c406885beed8224b01b212055afaf874192b0ced7da9bac341.so'
relocations:
  - { offsetInCU: 0x26, offset: 0x26, size: 0x8, addend: 0x0, symName: _PyInit_m74ef9b94690145c406885beed8224b01b212055afaf874192b0ced7da9bac341, symObjAddr: 0x0, symBinAddr: 0x1024, symSize: 0x224 }
  - { offsetInCU: 0x53, offset: 0x53, size: 0x8, addend: 0x0, symName: __ZL11PyArray_API, symObjAddr: 0x28BB8, symBinAddr: 0x8148, symSize: 0x0 }
  - { offsetInCU: 0x73, offset: 0x73, size: 0x8, addend: 0x0, symName: __ZL9moduledef, symObjAddr: 0x2D90, symBinAddr: 0x80A0, symSize: 0x0 }
  - { offsetInCU: 0xC86, offset: 0xC86, size: 0x8, addend: 0x0, symName: __ZL9MyMethods, symObjAddr: 0x2DF8, symBinAddr: 0x8108, symSize: 0x0 }
  - { offsetInCU: 0x20BF, offset: 0x20BF, size: 0x8, addend: 0x0, symName: __ZNSt3__111__sift_downB8un170006INS_17_ClassicAlgPolicyERNS_6__lessIvvEENS_16reverse_iteratorINS_11__wrap_iterIPNS_4pairIiiEEEEEEEEvT1_OT0_NS_15iterator_traitsISC_E15difference_typeESC_, symObjAddr: 0x1300, symBinAddr: 0x2324, symSize: 0x130 }
  - { offsetInCU: 0x23D3, offset: 0x23D3, size: 0x8, addend: 0x0, symName: __ZNSt3__111__introsortINS_17_ClassicAlgPolicyERNS_6__lessIvvEENS_16reverse_iteratorINS_11__wrap_iterIPNS_4pairIiiEEEEEELb0EEEvT1_SC_T0_NS_15iterator_traitsISC_E15difference_typeEb, symObjAddr: 0x158C, symBinAddr: 0x25B0, symSize: 0x760 }
  - { offsetInCU: 0x3667, offset: 0x3667, size: 0x8, addend: 0x0, symName: __ZNSt3__131__partition_with_equals_on_leftB8un170006INS_17_ClassicAlgPolicyENS_16reverse_iteratorINS_11__wrap_iterIPNS_4pairIiiEEEEEERNS_6__lessIvvEEEET0_SC_SC_T1_, symObjAddr: 0x1E80, symBinAddr: 0x2EA4, symSize: 0x18C }
  - { offsetInCU: 0x39E5, offset: 0x39E5, size: 0x8, addend: 0x0, symName: __ZNSt3__132__partition_with_equals_on_rightB8un170006INS_17_ClassicAlgPolicyENS_16reverse_iteratorINS_11__wrap_iterIPNS_4pairIiiEEEEEERNS_6__lessIvvEEEENS4_IT0_bEESC_SC_T1_, symObjAddr: 0x200C, symBinAddr: 0x3030, symSize: 0x150 }
  - { offsetInCU: 0x3DFB, offset: 0x3DFB, size: 0x8, addend: 0x0, symName: __ZNSt3__127__insertion_sort_incompleteB8un170006INS_17_ClassicAlgPolicyERNS_6__lessIvvEENS_16reverse_iteratorINS_11__wrap_iterIPNS_4pairIiiEEEEEEEEbT1_SC_T0_, symObjAddr: 0x215C, symBinAddr: 0x3180, symSize: 0x334 }
  - { offsetInCU: 0x5A5E, offset: 0x5A5E, size: 0x8, addend: 0x0, symName: __ZNSt3__119__partial_sort_implB8un170006INS_17_ClassicAlgPolicyERNS_6__lessIvvEENS_16reverse_iteratorINS_11__wrap_iterIPNS_4pairIiiEEEEEESB_EET1_SC_SC_T2_OT0_, symObjAddr: 0x1194, symBinAddr: 0x21B8, symSize: 0x16C }
  - { offsetInCU: 0x5DB1, offset: 0x5DB1, size: 0x8, addend: 0x0, symName: __ZNSt3__110__pop_heapB8un170006INS_17_ClassicAlgPolicyENS_6__lessIvvEENS_16reverse_iteratorINS_11__wrap_iterIPNS_4pairIiiEEEEEEEEvT1_SB_RT0_NS_15iterator_traitsISB_E15difference_typeE, symObjAddr: 0x1430, symBinAddr: 0x2454, symSize: 0x15C }
  - { offsetInCU: 0x664C, offset: 0x664C, size: 0x8, addend: 0x0, symName: __ZNSt3__17__sort3B8un170006INS_17_ClassicAlgPolicyERNS_6__lessIvvEENS_16reverse_iteratorINS_11__wrap_iterIPNS_4pairIiiEEEEEEEEjT1_SC_SC_T0_, symObjAddr: 0x1CEC, symBinAddr: 0x2D10, symSize: 0x194 }
  - { offsetInCU: 0x66B6, offset: 0x66B6, size: 0x8, addend: 0x0, symName: __ZNSt3__17__sort3B8un170006INS_17_ClassicAlgPolicyERNS_6__lessIvvEENS_16reverse_iteratorINS_11__wrap_iterIPNS_4pairIiiEEEEEEEEjT1_SC_SC_T0_, symObjAddr: 0x1CEC, symBinAddr: 0x2D10, symSize: 0x194 }
  - { offsetInCU: 0x66DC, offset: 0x66DC, size: 0x8, addend: 0x0, symName: __ZNSt3__17__sort3B8un170006INS_17_ClassicAlgPolicyERNS_6__lessIvvEENS_16reverse_iteratorINS_11__wrap_iterIPNS_4pairIiiEEEEEEEEjT1_SC_SC_T0_, symObjAddr: 0x1CEC, symBinAddr: 0x2D10, symSize: 0x194 }
  - { offsetInCU: 0x6AFA, offset: 0x6AFA, size: 0x8, addend: 0x0, symName: __ZNSt3__17__sort5B8un170006INS_17_ClassicAlgPolicyERNS_6__lessIvvEENS_16reverse_iteratorINS_11__wrap_iterIPNS_4pairIiiEEEEEEEEvT1_SC_SC_SC_SC_T0_, symObjAddr: 0x2490, symBinAddr: 0x34B4, symSize: 0x21C }
  - { offsetInCU: 0x9AA6, offset: 0x9AA6, size: 0x8, addend: 0x0, symName: _PyInit_m74ef9b94690145c406885beed8224b01b212055afaf874192b0ced7da9bac341, symObjAddr: 0x0, symBinAddr: 0x1024, symSize: 0x224 }
  - { offsetInCU: 0x9D21, offset: 0x9D21, size: 0x8, addend: 0x0, symName: __ZL11instantiateP7_objectS0_, symObjAddr: 0x224, symBinAddr: 0x1248, symSize: 0x110 }
  - { offsetInCU: 0x9ED3, offset: 0x9ED3, size: 0x8, addend: 0x0, symName: __ZL95__struct_compiled_op_m74ef9b94690145c406885beed8224b01b212055afaf874192b0ced7da9bac341_executorPN12_GLOBAL__N_186__struct_compiled_op_m74ef9b94690145c406885beed8224b01b212055afaf874192b0ced7da9bac341E, symObjAddr: 0x334, symBinAddr: 0x1358, symSize: 0xDE4 }
  - { offsetInCU: 0x9F48, offset: 0x9F48, size: 0x8, addend: 0x0, symName: __ZL11instantiateP7_objectS0_.cold.1, symObjAddr: 0x26AC, symBinAddr: 0x36D0, symSize: 0x28 }
  - { offsetInCU: 0x9F60, offset: 0x9F60, size: 0x8, addend: 0x0, symName: __ZL11instantiateP7_objectS0_.cold.2, symObjAddr: 0x26D4, symBinAddr: 0x36F8, symSize: 0x28 }
  - { offsetInCU: 0xA474, offset: 0xA474, size: 0x8, addend: 0x0, symName: __ZL95__struct_compiled_op_m74ef9b94690145c406885beed8224b01b212055afaf874192b0ced7da9bac341_executorPN12_GLOBAL__N_186__struct_compiled_op_m74ef9b94690145c406885beed8224b01b212055afaf874192b0ced7da9bac341E, symObjAddr: 0x334, symBinAddr: 0x1358, symSize: 0xDE4 }
  - { offsetInCU: 0xB04B, offset: 0xB04B, size: 0x8, addend: 0x0, symName: __ZL95__struct_compiled_op_m74ef9b94690145c406885beed8224b01b212055afaf874192b0ced7da9bac341_executorPN12_GLOBAL__N_186__struct_compiled_op_m74ef9b94690145c406885beed8224b01b212055afaf874192b0ced7da9bac341E.cold.2, symObjAddr: 0x2724, symBinAddr: 0x3748, symSize: 0x28 }
  - { offsetInCU: 0xB079, offset: 0xB079, size: 0x8, addend: 0x0, symName: __ZL95__struct_compiled_op_m74ef9b94690145c406885beed8224b01b212055afaf874192b0ced7da9bac341_executorPN12_GLOBAL__N_186__struct_compiled_op_m74ef9b94690145c406885beed8224b01b212055afaf874192b0ced7da9bac341E.cold.1, symObjAddr: 0x26FC, symBinAddr: 0x3720, symSize: 0x28 }
  - { offsetInCU: 0xB0A7, offset: 0xB0A7, size: 0x8, addend: 0x0, symName: __ZL95__struct_compiled_op_m74ef9b94690145c406885beed8224b01b212055afaf874192b0ced7da9bac341_executorPN12_GLOBAL__N_186__struct_compiled_op_m74ef9b94690145c406885beed8224b01b212055afaf874192b0ced7da9bac341E.cold.3, symObjAddr: 0x274C, symBinAddr: 0x3770, symSize: 0x28 }
  - { offsetInCU: 0xB0D5, offset: 0xB0D5, size: 0x8, addend: 0x0, symName: __ZL95__struct_compiled_op_m74ef9b94690145c406885beed8224b01b212055afaf874192b0ced7da9bac341_executorPN12_GLOBAL__N_186__struct_compiled_op_m74ef9b94690145c406885beed8224b01b212055afaf874192b0ced7da9bac341E.cold.4, symObjAddr: 0x2774, symBinAddr: 0x3798, symSize: 0x28 }
  - { offsetInCU: 0xB103, offset: 0xB103, size: 0x8, addend: 0x0, symName: __ZL95__struct_compiled_op_m74ef9b94690145c406885beed8224b01b212055afaf874192b0ced7da9bac341_executorPN12_GLOBAL__N_186__struct_compiled_op_m74ef9b94690145c406885beed8224b01b212055afaf874192b0ced7da9bac341E.cold.5, symObjAddr: 0x279C, symBinAddr: 0x37C0, symSize: 0x28 }
  - { offsetInCU: 0xB131, offset: 0xB131, size: 0x8, addend: 0x0, symName: __ZL95__struct_compiled_op_m74ef9b94690145c406885beed8224b01b212055afaf874192b0ced7da9bac341_executorPN12_GLOBAL__N_186__struct_compiled_op_m74ef9b94690145c406885beed8224b01b212055afaf874192b0ced7da9bac341E.cold.6, symObjAddr: 0x27C4, symBinAddr: 0x37E8, symSize: 0x28 }
  - { offsetInCU: 0xB1E2, offset: 0xB1E2, size: 0x8, addend: 0x0, symName: __ZL97__struct_compiled_op_m74ef9b94690145c406885beed8224b01b212055afaf874192b0ced7da9bac341_destructorP7_object, symObjAddr: 0x1118, symBinAddr: 0x213C, symSize: 0x7C }
...
