---
triple:          'arm64-apple-darwin'
binary-path:     '/Users/paulosoares/personal/phd/code/tomcat-coordination/.pytensor_compiles/compiledir_2024.10.16--21.29.11_0/tmpr1_5b4yy/m014e11579c784ca19f750ad3e7f4368b2155b505711a974d67ff2d1ad6cd0120.so'
relocations:
  - { offsetInCU: 0x26, offset: 0x26, size: 0x8, addend: 0x0, symName: _PyInit_m014e11579c784ca19f750ad3e7f4368b2155b505711a974d67ff2d1ad6cd0120, symObjAddr: 0x0, symBinAddr: 0xED8, symSize: 0x224 }
  - { offsetInCU: 0x53, offset: 0x53, size: 0x8, addend: 0x0, symName: __ZL11PyArray_API, symObjAddr: 0x290E0, symBinAddr: 0x8140, symSize: 0x0 }
  - { offsetInCU: 0x73, offset: 0x73, size: 0x8, addend: 0x0, symName: __ZL9moduledef, symObjAddr: 0x2EF0, symBinAddr: 0x8098, symSize: 0x0 }
  - { offsetInCU: 0xC86, offset: 0xC86, size: 0x8, addend: 0x0, symName: __ZL9MyMethods, symObjAddr: 0x2F58, symBinAddr: 0x8100, symSize: 0x0 }
  - { offsetInCU: 0x20BF, offset: 0x20BF, size: 0x8, addend: 0x0, symName: __ZNSt3__111__sift_downB8un170006INS_17_ClassicAlgPolicyERNS_6__lessIvvEENS_16reverse_iteratorINS_11__wrap_iterIPNS_4pairIiiEEEEEEEEvT1_OT0_NS_15iterator_traitsISC_E15difference_typeESC_, symObjAddr: 0x1464, symBinAddr: 0x233C, symSize: 0x130 }
  - { offsetInCU: 0x23D3, offset: 0x23D3, size: 0x8, addend: 0x0, symName: __ZNSt3__111__introsortINS_17_ClassicAlgPolicyERNS_6__lessIvvEENS_16reverse_iteratorINS_11__wrap_iterIPNS_4pairIiiEEEEEELb0EEEvT1_SC_T0_NS_15iterator_traitsISC_E15difference_typeEb, symObjAddr: 0x16F0, symBinAddr: 0x25C8, symSize: 0x760 }
  - { offsetInCU: 0x3667, offset: 0x3667, size: 0x8, addend: 0x0, symName: __ZNSt3__131__partition_with_equals_on_leftB8un170006INS_17_ClassicAlgPolicyENS_16reverse_iteratorINS_11__wrap_iterIPNS_4pairIiiEEEEEERNS_6__lessIvvEEEET0_SC_SC_T1_, symObjAddr: 0x1FE4, symBinAddr: 0x2EBC, symSize: 0x18C }
  - { offsetInCU: 0x39E5, offset: 0x39E5, size: 0x8, addend: 0x0, symName: __ZNSt3__132__partition_with_equals_on_rightB8un170006INS_17_ClassicAlgPolicyENS_16reverse_iteratorINS_11__wrap_iterIPNS_4pairIiiEEEEEERNS_6__lessIvvEEEENS4_IT0_bEESC_SC_T1_, symObjAddr: 0x2170, symBinAddr: 0x3048, symSize: 0x150 }
  - { offsetInCU: 0x3DFB, offset: 0x3DFB, size: 0x8, addend: 0x0, symName: __ZNSt3__127__insertion_sort_incompleteB8un170006INS_17_ClassicAlgPolicyERNS_6__lessIvvEENS_16reverse_iteratorINS_11__wrap_iterIPNS_4pairIiiEEEEEEEEbT1_SC_T0_, symObjAddr: 0x22C0, symBinAddr: 0x3198, symSize: 0x334 }
  - { offsetInCU: 0x5A5E, offset: 0x5A5E, size: 0x8, addend: 0x0, symName: __ZNSt3__119__partial_sort_implB8un170006INS_17_ClassicAlgPolicyERNS_6__lessIvvEENS_16reverse_iteratorINS_11__wrap_iterIPNS_4pairIiiEEEEEESB_EET1_SC_SC_T2_OT0_, symObjAddr: 0x12F8, symBinAddr: 0x21D0, symSize: 0x16C }
  - { offsetInCU: 0x5DB1, offset: 0x5DB1, size: 0x8, addend: 0x0, symName: __ZNSt3__110__pop_heapB8un170006INS_17_ClassicAlgPolicyENS_6__lessIvvEENS_16reverse_iteratorINS_11__wrap_iterIPNS_4pairIiiEEEEEEEEvT1_SB_RT0_NS_15iterator_traitsISB_E15difference_typeE, symObjAddr: 0x1594, symBinAddr: 0x246C, symSize: 0x15C }
  - { offsetInCU: 0x664C, offset: 0x664C, size: 0x8, addend: 0x0, symName: __ZNSt3__17__sort3B8un170006INS_17_ClassicAlgPolicyERNS_6__lessIvvEENS_16reverse_iteratorINS_11__wrap_iterIPNS_4pairIiiEEEEEEEEjT1_SC_SC_T0_, symObjAddr: 0x1E50, symBinAddr: 0x2D28, symSize: 0x194 }
  - { offsetInCU: 0x66B6, offset: 0x66B6, size: 0x8, addend: 0x0, symName: __ZNSt3__17__sort3B8un170006INS_17_ClassicAlgPolicyERNS_6__lessIvvEENS_16reverse_iteratorINS_11__wrap_iterIPNS_4pairIiiEEEEEEEEjT1_SC_SC_T0_, symObjAddr: 0x1E50, symBinAddr: 0x2D28, symSize: 0x194 }
  - { offsetInCU: 0x66DC, offset: 0x66DC, size: 0x8, addend: 0x0, symName: __ZNSt3__17__sort3B8un170006INS_17_ClassicAlgPolicyERNS_6__lessIvvEENS_16reverse_iteratorINS_11__wrap_iterIPNS_4pairIiiEEEEEEEEjT1_SC_SC_T0_, symObjAddr: 0x1E50, symBinAddr: 0x2D28, symSize: 0x194 }
  - { offsetInCU: 0x6AFA, offset: 0x6AFA, size: 0x8, addend: 0x0, symName: __ZNSt3__17__sort5B8un170006INS_17_ClassicAlgPolicyERNS_6__lessIvvEENS_16reverse_iteratorINS_11__wrap_iterIPNS_4pairIiiEEEEEEEEvT1_SC_SC_SC_SC_T0_, symObjAddr: 0x25F4, symBinAddr: 0x34CC, symSize: 0x21C }
  - { offsetInCU: 0x9AA6, offset: 0x9AA6, size: 0x8, addend: 0x0, symName: _PyInit_m014e11579c784ca19f750ad3e7f4368b2155b505711a974d67ff2d1ad6cd0120, symObjAddr: 0x0, symBinAddr: 0xED8, symSize: 0x224 }
  - { offsetInCU: 0x9D21, offset: 0x9D21, size: 0x8, addend: 0x0, symName: __ZL11instantiateP7_objectS0_, symObjAddr: 0x224, symBinAddr: 0x10FC, symSize: 0x110 }
  - { offsetInCU: 0x9ED3, offset: 0x9ED3, size: 0x8, addend: 0x0, symName: __ZL95__struct_compiled_op_m014e11579c784ca19f750ad3e7f4368b2155b505711a974d67ff2d1ad6cd0120_executorPN12_GLOBAL__N_186__struct_compiled_op_m014e11579c784ca19f750ad3e7f4368b2155b505711a974d67ff2d1ad6cd0120E, symObjAddr: 0x334, symBinAddr: 0x120C, symSize: 0xF48 }
  - { offsetInCU: 0x9F48, offset: 0x9F48, size: 0x8, addend: 0x0, symName: __ZL11instantiateP7_objectS0_.cold.1, symObjAddr: 0x2810, symBinAddr: 0x36E8, symSize: 0x28 }
  - { offsetInCU: 0x9F60, offset: 0x9F60, size: 0x8, addend: 0x0, symName: __ZL11instantiateP7_objectS0_.cold.2, symObjAddr: 0x2838, symBinAddr: 0x3710, symSize: 0x28 }
  - { offsetInCU: 0xA506, offset: 0xA506, size: 0x8, addend: 0x0, symName: __ZL95__struct_compiled_op_m014e11579c784ca19f750ad3e7f4368b2155b505711a974d67ff2d1ad6cd0120_executorPN12_GLOBAL__N_186__struct_compiled_op_m014e11579c784ca19f750ad3e7f4368b2155b505711a974d67ff2d1ad6cd0120E, symObjAddr: 0x334, symBinAddr: 0x120C, symSize: 0xF48 }
  - { offsetInCU: 0xB152, offset: 0xB152, size: 0x8, addend: 0x0, symName: __ZL95__struct_compiled_op_m014e11579c784ca19f750ad3e7f4368b2155b505711a974d67ff2d1ad6cd0120_executorPN12_GLOBAL__N_186__struct_compiled_op_m014e11579c784ca19f750ad3e7f4368b2155b505711a974d67ff2d1ad6cd0120E.cold.2, symObjAddr: 0x2888, symBinAddr: 0x3760, symSize: 0x28 }
  - { offsetInCU: 0xB180, offset: 0xB180, size: 0x8, addend: 0x0, symName: __ZL95__struct_compiled_op_m014e11579c784ca19f750ad3e7f4368b2155b505711a974d67ff2d1ad6cd0120_executorPN12_GLOBAL__N_186__struct_compiled_op_m014e11579c784ca19f750ad3e7f4368b2155b505711a974d67ff2d1ad6cd0120E.cold.1, symObjAddr: 0x2860, symBinAddr: 0x3738, symSize: 0x28 }
  - { offsetInCU: 0xB1AE, offset: 0xB1AE, size: 0x8, addend: 0x0, symName: __ZL95__struct_compiled_op_m014e11579c784ca19f750ad3e7f4368b2155b505711a974d67ff2d1ad6cd0120_executorPN12_GLOBAL__N_186__struct_compiled_op_m014e11579c784ca19f750ad3e7f4368b2155b505711a974d67ff2d1ad6cd0120E.cold.3, symObjAddr: 0x28B0, symBinAddr: 0x3788, symSize: 0x28 }
  - { offsetInCU: 0xB1DC, offset: 0xB1DC, size: 0x8, addend: 0x0, symName: __ZL95__struct_compiled_op_m014e11579c784ca19f750ad3e7f4368b2155b505711a974d67ff2d1ad6cd0120_executorPN12_GLOBAL__N_186__struct_compiled_op_m014e11579c784ca19f750ad3e7f4368b2155b505711a974d67ff2d1ad6cd0120E.cold.4, symObjAddr: 0x28D8, symBinAddr: 0x37B0, symSize: 0x28 }
  - { offsetInCU: 0xB20A, offset: 0xB20A, size: 0x8, addend: 0x0, symName: __ZL95__struct_compiled_op_m014e11579c784ca19f750ad3e7f4368b2155b505711a974d67ff2d1ad6cd0120_executorPN12_GLOBAL__N_186__struct_compiled_op_m014e11579c784ca19f750ad3e7f4368b2155b505711a974d67ff2d1ad6cd0120E.cold.5, symObjAddr: 0x2900, symBinAddr: 0x37D8, symSize: 0x28 }
  - { offsetInCU: 0xB238, offset: 0xB238, size: 0x8, addend: 0x0, symName: __ZL95__struct_compiled_op_m014e11579c784ca19f750ad3e7f4368b2155b505711a974d67ff2d1ad6cd0120_executorPN12_GLOBAL__N_186__struct_compiled_op_m014e11579c784ca19f750ad3e7f4368b2155b505711a974d67ff2d1ad6cd0120E.cold.6, symObjAddr: 0x2928, symBinAddr: 0x3800, symSize: 0x28 }
  - { offsetInCU: 0xB2E9, offset: 0xB2E9, size: 0x8, addend: 0x0, symName: __ZL97__struct_compiled_op_m014e11579c784ca19f750ad3e7f4368b2155b505711a974d67ff2d1ad6cd0120_destructorP7_object, symObjAddr: 0x127C, symBinAddr: 0x2154, symSize: 0x7C }
...
