---
triple:          'arm64-apple-darwin'
binary-path:     '/Users/paulosoares/personal/phd/code/tomcat-coordination/.pytensor_compiles/compiledir_2024.10.16--21.29.11_0/tmpisswma4f/md5f47ac4ffa299f85388ff96a91b3233ffb151174f2d6c42e4e61aa3fbf17e6f.so'
relocations:
  - { offsetInCU: 0x26, offset: 0x26, size: 0x8, addend: 0x0, symName: _PyInit_md5f47ac4ffa299f85388ff96a91b3233ffb151174f2d6c42e4e61aa3fbf17e6f, symObjAddr: 0x0, symBinAddr: 0x1110, symSize: 0x224 }
  - { offsetInCU: 0x53, offset: 0x53, size: 0x8, addend: 0x0, symName: __ZL11PyArray_API, symObjAddr: 0x287E0, symBinAddr: 0x8148, symSize: 0x0 }
  - { offsetInCU: 0x73, offset: 0x73, size: 0x8, addend: 0x0, symName: __ZL9moduledef, symObjAddr: 0x2CA0, symBinAddr: 0x80A0, symSize: 0x0 }
  - { offsetInCU: 0xC86, offset: 0xC86, size: 0x8, addend: 0x0, symName: __ZL9MyMethods, symObjAddr: 0x2D08, symBinAddr: 0x8108, symSize: 0x0 }
  - { offsetInCU: 0x20BF, offset: 0x20BF, size: 0x8, addend: 0x0, symName: __ZNSt3__111__sift_downB8un170006INS_17_ClassicAlgPolicyERNS_6__lessIvvEENS_16reverse_iteratorINS_11__wrap_iterIPNS_4pairIiiEEEEEEEEvT1_OT0_NS_15iterator_traitsISC_E15difference_typeESC_, symObjAddr: 0x1214, symBinAddr: 0x2324, symSize: 0x130 }
  - { offsetInCU: 0x23D3, offset: 0x23D3, size: 0x8, addend: 0x0, symName: __ZNSt3__111__introsortINS_17_ClassicAlgPolicyERNS_6__lessIvvEENS_16reverse_iteratorINS_11__wrap_iterIPNS_4pairIiiEEEEEELb0EEEvT1_SC_T0_NS_15iterator_traitsISC_E15difference_typeEb, symObjAddr: 0x14A0, symBinAddr: 0x25B0, symSize: 0x760 }
  - { offsetInCU: 0x3667, offset: 0x3667, size: 0x8, addend: 0x0, symName: __ZNSt3__131__partition_with_equals_on_leftB8un170006INS_17_ClassicAlgPolicyENS_16reverse_iteratorINS_11__wrap_iterIPNS_4pairIiiEEEEEERNS_6__lessIvvEEEET0_SC_SC_T1_, symObjAddr: 0x1D94, symBinAddr: 0x2EA4, symSize: 0x18C }
  - { offsetInCU: 0x39E5, offset: 0x39E5, size: 0x8, addend: 0x0, symName: __ZNSt3__132__partition_with_equals_on_rightB8un170006INS_17_ClassicAlgPolicyENS_16reverse_iteratorINS_11__wrap_iterIPNS_4pairIiiEEEEEERNS_6__lessIvvEEEENS4_IT0_bEESC_SC_T1_, symObjAddr: 0x1F20, symBinAddr: 0x3030, symSize: 0x150 }
  - { offsetInCU: 0x3DFB, offset: 0x3DFB, size: 0x8, addend: 0x0, symName: __ZNSt3__127__insertion_sort_incompleteB8un170006INS_17_ClassicAlgPolicyERNS_6__lessIvvEENS_16reverse_iteratorINS_11__wrap_iterIPNS_4pairIiiEEEEEEEEbT1_SC_T0_, symObjAddr: 0x2070, symBinAddr: 0x3180, symSize: 0x334 }
  - { offsetInCU: 0x5A5E, offset: 0x5A5E, size: 0x8, addend: 0x0, symName: __ZNSt3__119__partial_sort_implB8un170006INS_17_ClassicAlgPolicyERNS_6__lessIvvEENS_16reverse_iteratorINS_11__wrap_iterIPNS_4pairIiiEEEEEESB_EET1_SC_SC_T2_OT0_, symObjAddr: 0x10A8, symBinAddr: 0x21B8, symSize: 0x16C }
  - { offsetInCU: 0x5DB1, offset: 0x5DB1, size: 0x8, addend: 0x0, symName: __ZNSt3__110__pop_heapB8un170006INS_17_ClassicAlgPolicyENS_6__lessIvvEENS_16reverse_iteratorINS_11__wrap_iterIPNS_4pairIiiEEEEEEEEvT1_SB_RT0_NS_15iterator_traitsISB_E15difference_typeE, symObjAddr: 0x1344, symBinAddr: 0x2454, symSize: 0x15C }
  - { offsetInCU: 0x664C, offset: 0x664C, size: 0x8, addend: 0x0, symName: __ZNSt3__17__sort3B8un170006INS_17_ClassicAlgPolicyERNS_6__lessIvvEENS_16reverse_iteratorINS_11__wrap_iterIPNS_4pairIiiEEEEEEEEjT1_SC_SC_T0_, symObjAddr: 0x1C00, symBinAddr: 0x2D10, symSize: 0x194 }
  - { offsetInCU: 0x66B6, offset: 0x66B6, size: 0x8, addend: 0x0, symName: __ZNSt3__17__sort3B8un170006INS_17_ClassicAlgPolicyERNS_6__lessIvvEENS_16reverse_iteratorINS_11__wrap_iterIPNS_4pairIiiEEEEEEEEjT1_SC_SC_T0_, symObjAddr: 0x1C00, symBinAddr: 0x2D10, symSize: 0x194 }
  - { offsetInCU: 0x66DC, offset: 0x66DC, size: 0x8, addend: 0x0, symName: __ZNSt3__17__sort3B8un170006INS_17_ClassicAlgPolicyERNS_6__lessIvvEENS_16reverse_iteratorINS_11__wrap_iterIPNS_4pairIiiEEEEEEEEjT1_SC_SC_T0_, symObjAddr: 0x1C00, symBinAddr: 0x2D10, symSize: 0x194 }
  - { offsetInCU: 0x6AFA, offset: 0x6AFA, size: 0x8, addend: 0x0, symName: __ZNSt3__17__sort5B8un170006INS_17_ClassicAlgPolicyERNS_6__lessIvvEENS_16reverse_iteratorINS_11__wrap_iterIPNS_4pairIiiEEEEEEEEvT1_SC_SC_SC_SC_T0_, symObjAddr: 0x23A4, symBinAddr: 0x34B4, symSize: 0x21C }
  - { offsetInCU: 0x9A84, offset: 0x9A84, size: 0x8, addend: 0x0, symName: _PyInit_md5f47ac4ffa299f85388ff96a91b3233ffb151174f2d6c42e4e61aa3fbf17e6f, symObjAddr: 0x0, symBinAddr: 0x1110, symSize: 0x224 }
  - { offsetInCU: 0x9CFF, offset: 0x9CFF, size: 0x8, addend: 0x0, symName: __ZL11instantiateP7_objectS0_, symObjAddr: 0x224, symBinAddr: 0x1334, symSize: 0x110 }
  - { offsetInCU: 0x9EB1, offset: 0x9EB1, size: 0x8, addend: 0x0, symName: __ZL95__struct_compiled_op_md5f47ac4ffa299f85388ff96a91b3233ffb151174f2d6c42e4e61aa3fbf17e6f_executorPN12_GLOBAL__N_186__struct_compiled_op_md5f47ac4ffa299f85388ff96a91b3233ffb151174f2d6c42e4e61aa3fbf17e6fE, symObjAddr: 0x334, symBinAddr: 0x1444, symSize: 0xCF8 }
  - { offsetInCU: 0x9F26, offset: 0x9F26, size: 0x8, addend: 0x0, symName: __ZL11instantiateP7_objectS0_.cold.1, symObjAddr: 0x25C0, symBinAddr: 0x36D0, symSize: 0x28 }
  - { offsetInCU: 0x9F3E, offset: 0x9F3E, size: 0x8, addend: 0x0, symName: __ZL11instantiateP7_objectS0_.cold.2, symObjAddr: 0x25E8, symBinAddr: 0x36F8, symSize: 0x28 }
  - { offsetInCU: 0xA3E2, offset: 0xA3E2, size: 0x8, addend: 0x0, symName: __ZL95__struct_compiled_op_md5f47ac4ffa299f85388ff96a91b3233ffb151174f2d6c42e4e61aa3fbf17e6f_executorPN12_GLOBAL__N_186__struct_compiled_op_md5f47ac4ffa299f85388ff96a91b3233ffb151174f2d6c42e4e61aa3fbf17e6fE, symObjAddr: 0x334, symBinAddr: 0x1444, symSize: 0xCF8 }
  - { offsetInCU: 0xAF50, offset: 0xAF50, size: 0x8, addend: 0x0, symName: __ZL95__struct_compiled_op_md5f47ac4ffa299f85388ff96a91b3233ffb151174f2d6c42e4e61aa3fbf17e6f_executorPN12_GLOBAL__N_186__struct_compiled_op_md5f47ac4ffa299f85388ff96a91b3233ffb151174f2d6c42e4e61aa3fbf17e6fE.cold.2, symObjAddr: 0x2638, symBinAddr: 0x3748, symSize: 0x28 }
  - { offsetInCU: 0xAF8F, offset: 0xAF8F, size: 0x8, addend: 0x0, symName: __ZL95__struct_compiled_op_md5f47ac4ffa299f85388ff96a91b3233ffb151174f2d6c42e4e61aa3fbf17e6f_executorPN12_GLOBAL__N_186__struct_compiled_op_md5f47ac4ffa299f85388ff96a91b3233ffb151174f2d6c42e4e61aa3fbf17e6fE.cold.1, symObjAddr: 0x2610, symBinAddr: 0x3720, symSize: 0x28 }
  - { offsetInCU: 0xAFBD, offset: 0xAFBD, size: 0x8, addend: 0x0, symName: __ZL95__struct_compiled_op_md5f47ac4ffa299f85388ff96a91b3233ffb151174f2d6c42e4e61aa3fbf17e6f_executorPN12_GLOBAL__N_186__struct_compiled_op_md5f47ac4ffa299f85388ff96a91b3233ffb151174f2d6c42e4e61aa3fbf17e6fE.cold.3, symObjAddr: 0x2660, symBinAddr: 0x3770, symSize: 0x28 }
  - { offsetInCU: 0xAFEB, offset: 0xAFEB, size: 0x8, addend: 0x0, symName: __ZL95__struct_compiled_op_md5f47ac4ffa299f85388ff96a91b3233ffb151174f2d6c42e4e61aa3fbf17e6f_executorPN12_GLOBAL__N_186__struct_compiled_op_md5f47ac4ffa299f85388ff96a91b3233ffb151174f2d6c42e4e61aa3fbf17e6fE.cold.4, symObjAddr: 0x2688, symBinAddr: 0x3798, symSize: 0x28 }
  - { offsetInCU: 0xB019, offset: 0xB019, size: 0x8, addend: 0x0, symName: __ZL95__struct_compiled_op_md5f47ac4ffa299f85388ff96a91b3233ffb151174f2d6c42e4e61aa3fbf17e6f_executorPN12_GLOBAL__N_186__struct_compiled_op_md5f47ac4ffa299f85388ff96a91b3233ffb151174f2d6c42e4e61aa3fbf17e6fE.cold.5, symObjAddr: 0x26B0, symBinAddr: 0x37C0, symSize: 0x28 }
  - { offsetInCU: 0xB047, offset: 0xB047, size: 0x8, addend: 0x0, symName: __ZL95__struct_compiled_op_md5f47ac4ffa299f85388ff96a91b3233ffb151174f2d6c42e4e61aa3fbf17e6f_executorPN12_GLOBAL__N_186__struct_compiled_op_md5f47ac4ffa299f85388ff96a91b3233ffb151174f2d6c42e4e61aa3fbf17e6fE.cold.6, symObjAddr: 0x26D8, symBinAddr: 0x37E8, symSize: 0x28 }
  - { offsetInCU: 0xB0F8, offset: 0xB0F8, size: 0x8, addend: 0x0, symName: __ZL97__struct_compiled_op_md5f47ac4ffa299f85388ff96a91b3233ffb151174f2d6c42e4e61aa3fbf17e6f_destructorP7_object, symObjAddr: 0x102C, symBinAddr: 0x213C, symSize: 0x7C }
...
