---
triple:          'arm64-apple-darwin'
binary-path:     '/Users/paulosoares/personal/phd/code/tomcat-coordination/.pytensor_compiles/compiledir_2024.10.16--21.28.53_0/tmp5mze7qgn/mdb3a1a186c6e0c789bc6494774a591ac6d8ab11d3ed19bf02a4ff96ab64fa9ba.so'
relocations:
  - { offsetInCU: 0x26, offset: 0x26, size: 0x8, addend: 0x0, symName: __Z87cpu_dimshuffle_node_mdb3a1a186c6e0c789bc6494774a591ac6d8ab11d3ed19bf02a4ff96ab64fa9ba_0P16tagPyArrayObjectPS0_P137_Params_7084dbbf7c2181f7c442e43c44205c5693e6f346a0c76b0766c24f89c72690a6_887d99bd69a24775c29fca6fbd6102b5406ad2c8112fbd4e054ca1130411367e, symObjAddr: 0x0, symBinAddr: 0x21C8, symSize: 0x250 }
  - { offsetInCU: 0x53, offset: 0x53, size: 0x8, addend: 0x0, symName: __ZL11PyArray_API, symObjAddr: 0x11788, symBinAddr: 0x8160, symSize: 0x0 }
  - { offsetInCU: 0x73, offset: 0x73, size: 0x8, addend: 0x0, symName: __ZL9moduledef, symObjAddr: 0x1BA0, symBinAddr: 0x80B8, symSize: 0x0 }
  - { offsetInCU: 0xC86, offset: 0xC86, size: 0x8, addend: 0x0, symName: __ZL9MyMethods, symObjAddr: 0x1C08, symBinAddr: 0x8120, symSize: 0x0 }
  - { offsetInCU: 0x3CBB, offset: 0x3CBB, size: 0x8, addend: 0x0, symName: __Z87cpu_dimshuffle_node_mdb3a1a186c6e0c789bc6494774a591ac6d8ab11d3ed19bf02a4ff96ab64fa9ba_0P16tagPyArrayObjectPS0_P137_Params_7084dbbf7c2181f7c442e43c44205c5693e6f346a0c76b0766c24f89c72690a6_887d99bd69a24775c29fca6fbd6102b5406ad2c8112fbd4e054ca1130411367e, symObjAddr: 0x0, symBinAddr: 0x21C8, symSize: 0x250 }
  - { offsetInCU: 0x3FCD, offset: 0x3FCD, size: 0x8, addend: 0x0, symName: _PyInit_mdb3a1a186c6e0c789bc6494774a591ac6d8ab11d3ed19bf02a4ff96ab64fa9ba, symObjAddr: 0x250, symBinAddr: 0x2418, symSize: 0x224 }
  - { offsetInCU: 0x4333, offset: 0x4333, size: 0x8, addend: 0x0, symName: __ZL11instantiateP7_objectS0_, symObjAddr: 0x474, symBinAddr: 0x263C, symSize: 0x370 }
  - { offsetInCU: 0x4814, offset: 0x4814, size: 0x8, addend: 0x0, symName: __ZN12_GLOBAL__N_186__struct_compiled_op_mdb3a1a186c6e0c789bc6494774a591ac6d8ab11d3ed19bf02a4ff96ab64fa9baD1Ev, symObjAddr: 0x7E4, symBinAddr: 0x29AC, symSize: 0x120 }
  - { offsetInCU: 0x4845, offset: 0x4845, size: 0x8, addend: 0x0, symName: __ZN137_Params_7084dbbf7c2181f7c442e43c44205c5693e6f346a0c76b0766c24f89c72690a6_887d99bd69a24775c29fca6fbd6102b5406ad2c8112fbd4e054ca1130411367e15extract_augmentEP7_object, symObjAddr: 0xE14, symBinAddr: 0x2FDC, symSize: 0x1E8 }
  - { offsetInCU: 0x48F9, offset: 0x48F9, size: 0x8, addend: 0x0, symName: __ZN12_GLOBAL__N_186__struct_compiled_op_mdb3a1a186c6e0c789bc6494774a591ac6d8ab11d3ed19bf02a4ff96ab64fa9baD1Ev, symObjAddr: 0x7E4, symBinAddr: 0x29AC, symSize: 0x120 }
  - { offsetInCU: 0x4B5A, offset: 0x4B5A, size: 0x8, addend: 0x0, symName: __ZN137_Params_7084dbbf7c2181f7c442e43c44205c5693e6f346a0c76b0766c24f89c72690a6_887d99bd69a24775c29fca6fbd6102b5406ad2c8112fbd4e054ca1130411367e15extract_shuffleEP7_object, symObjAddr: 0xFFC, symBinAddr: 0x31C4, symSize: 0x1E8 }
  - { offsetInCU: 0x4C03, offset: 0x4C03, size: 0x8, addend: 0x0, symName: __ZN137_Params_7084dbbf7c2181f7c442e43c44205c5693e6f346a0c76b0766c24f89c72690a6_887d99bd69a24775c29fca6fbd6102b5406ad2c8112fbd4e054ca1130411367e21extract_transpositionEP7_object, symObjAddr: 0x11E4, symBinAddr: 0x33AC, symSize: 0x1E8 }
  - { offsetInCU: 0x4CF0, offset: 0x4CF0, size: 0x8, addend: 0x0, symName: __ZL11instantiateP7_objectS0_.cold.1, symObjAddr: 0x13CC, symBinAddr: 0x3594, symSize: 0x28 }
  - { offsetInCU: 0x4D07, offset: 0x4D07, size: 0x8, addend: 0x0, symName: __ZL11instantiateP7_objectS0_.cold.2, symObjAddr: 0x13F4, symBinAddr: 0x35BC, symSize: 0x28 }
  - { offsetInCU: 0x4D1E, offset: 0x4D1E, size: 0x8, addend: 0x0, symName: __ZL11instantiateP7_objectS0_.cold.3, symObjAddr: 0x141C, symBinAddr: 0x35E4, symSize: 0x28 }
  - { offsetInCU: 0x4F0B, offset: 0x4F0B, size: 0x8, addend: 0x0, symName: __ZL95__struct_compiled_op_mdb3a1a186c6e0c789bc6494774a591ac6d8ab11d3ed19bf02a4ff96ab64fa9ba_executorPN12_GLOBAL__N_186__struct_compiled_op_mdb3a1a186c6e0c789bc6494774a591ac6d8ab11d3ed19bf02a4ff96ab64fa9baE, symObjAddr: 0x904, symBinAddr: 0x2ACC, symSize: 0x4EC }
  - { offsetInCU: 0x5430, offset: 0x5430, size: 0x8, addend: 0x0, symName: __ZL97__struct_compiled_op_mdb3a1a186c6e0c789bc6494774a591ac6d8ab11d3ed19bf02a4ff96ab64fa9ba_destructorP7_object, symObjAddr: 0xDF0, symBinAddr: 0x2FB8, symSize: 0x24 }
  - { offsetInCU: 0x543A, offset: 0x543A, size: 0x8, addend: 0x0, symName: __ZL95__struct_compiled_op_mdb3a1a186c6e0c789bc6494774a591ac6d8ab11d3ed19bf02a4ff96ab64fa9ba_executorPN12_GLOBAL__N_186__struct_compiled_op_mdb3a1a186c6e0c789bc6494774a591ac6d8ab11d3ed19bf02a4ff96ab64fa9baE.cold.2, symObjAddr: 0x146C, symBinAddr: 0x3634, symSize: 0x28 }
  - { offsetInCU: 0x547E, offset: 0x547E, size: 0x8, addend: 0x0, symName: __ZL95__struct_compiled_op_mdb3a1a186c6e0c789bc6494774a591ac6d8ab11d3ed19bf02a4ff96ab64fa9ba_executorPN12_GLOBAL__N_186__struct_compiled_op_mdb3a1a186c6e0c789bc6494774a591ac6d8ab11d3ed19bf02a4ff96ab64fa9baE.cold.4, symObjAddr: 0x14BC, symBinAddr: 0x3684, symSize: 0x28 }
  - { offsetInCU: 0x54AB, offset: 0x54AB, size: 0x8, addend: 0x0, symName: __ZL95__struct_compiled_op_mdb3a1a186c6e0c789bc6494774a591ac6d8ab11d3ed19bf02a4ff96ab64fa9ba_executorPN12_GLOBAL__N_186__struct_compiled_op_mdb3a1a186c6e0c789bc6494774a591ac6d8ab11d3ed19bf02a4ff96ab64fa9baE.cold.3, symObjAddr: 0x1494, symBinAddr: 0x365C, symSize: 0x28 }
  - { offsetInCU: 0x54D8, offset: 0x54D8, size: 0x8, addend: 0x0, symName: __ZL95__struct_compiled_op_mdb3a1a186c6e0c789bc6494774a591ac6d8ab11d3ed19bf02a4ff96ab64fa9ba_executorPN12_GLOBAL__N_186__struct_compiled_op_mdb3a1a186c6e0c789bc6494774a591ac6d8ab11d3ed19bf02a4ff96ab64fa9baE.cold.1, symObjAddr: 0x1444, symBinAddr: 0x360C, symSize: 0x28 }
  - { offsetInCU: 0x5505, offset: 0x5505, size: 0x8, addend: 0x0, symName: __ZL95__struct_compiled_op_mdb3a1a186c6e0c789bc6494774a591ac6d8ab11d3ed19bf02a4ff96ab64fa9ba_executorPN12_GLOBAL__N_186__struct_compiled_op_mdb3a1a186c6e0c789bc6494774a591ac6d8ab11d3ed19bf02a4ff96ab64fa9baE.cold.5, symObjAddr: 0x14E4, symBinAddr: 0x36AC, symSize: 0x28 }
  - { offsetInCU: 0x5532, offset: 0x5532, size: 0x8, addend: 0x0, symName: __ZL95__struct_compiled_op_mdb3a1a186c6e0c789bc6494774a591ac6d8ab11d3ed19bf02a4ff96ab64fa9ba_executorPN12_GLOBAL__N_186__struct_compiled_op_mdb3a1a186c6e0c789bc6494774a591ac6d8ab11d3ed19bf02a4ff96ab64fa9baE.cold.6, symObjAddr: 0x150C, symBinAddr: 0x36D4, symSize: 0x28 }
  - { offsetInCU: 0x555F, offset: 0x555F, size: 0x8, addend: 0x0, symName: __ZL97__struct_compiled_op_mdb3a1a186c6e0c789bc6494774a591ac6d8ab11d3ed19bf02a4ff96ab64fa9ba_destructorP7_object, symObjAddr: 0xDF0, symBinAddr: 0x2FB8, symSize: 0x24 }
...
