---
triple:          'arm64-apple-darwin'
binary-path:     '/Users/paulosoares/personal/phd/code/tomcat-coordination/.pytensor_compiles/compiledir_2024.10.16--21.28.53_1/tmpi3lds1qg/m9c5cb18376121c810be1c85c5ee29fcfd4fda463f9a64b7d925f65ee66901bb4.so'
relocations:
  - { offsetInCU: 0x26, offset: 0x26, size: 0x8, addend: 0x0, symName: _PyInit_m9c5cb18376121c810be1c85c5ee29fcfd4fda463f9a64b7d925f65ee66901bb4, symObjAddr: 0x0, symBinAddr: 0x1B3C, symSize: 0x224 }
  - { offsetInCU: 0x53, offset: 0x53, size: 0x8, addend: 0x0, symName: __ZL11PyArray_API, symObjAddr: 0x124C8, symBinAddr: 0x8138, symSize: 0x0 }
  - { offsetInCU: 0x73, offset: 0x73, size: 0x8, addend: 0x0, symName: __ZL9moduledef, symObjAddr: 0x22A8, symBinAddr: 0x8090, symSize: 0x0 }
  - { offsetInCU: 0xC86, offset: 0xC86, size: 0x8, addend: 0x0, symName: __ZL9MyMethods, symObjAddr: 0x2310, symBinAddr: 0x80F8, symSize: 0x0 }
  - { offsetInCU: 0x3BD6, offset: 0x3BD6, size: 0x8, addend: 0x0, symName: _PyInit_m9c5cb18376121c810be1c85c5ee29fcfd4fda463f9a64b7d925f65ee66901bb4, symObjAddr: 0x0, symBinAddr: 0x1B3C, symSize: 0x224 }
  - { offsetInCU: 0x3EA5, offset: 0x3EA5, size: 0x8, addend: 0x0, symName: __ZL11instantiateP7_objectS0_, symObjAddr: 0x224, symBinAddr: 0x1D60, symSize: 0x17C }
  - { offsetInCU: 0x41B2, offset: 0x41B2, size: 0x8, addend: 0x0, symName: __ZL95__struct_compiled_op_m9c5cb18376121c810be1c85c5ee29fcfd4fda463f9a64b7d925f65ee66901bb4_executorPN12_GLOBAL__N_186__struct_compiled_op_m9c5cb18376121c810be1c85c5ee29fcfd4fda463f9a64b7d925f65ee66901bb4E, symObjAddr: 0x3A0, symBinAddr: 0x1EDC, symSize: 0x1460 }
  - { offsetInCU: 0x4210, offset: 0x4210, size: 0x8, addend: 0x0, symName: __ZL11instantiateP7_objectS0_.cold.1, symObjAddr: 0x1908, symBinAddr: 0x3444, symSize: 0x28 }
  - { offsetInCU: 0x4227, offset: 0x4227, size: 0x8, addend: 0x0, symName: __ZL11instantiateP7_objectS0_.cold.2, symObjAddr: 0x1930, symBinAddr: 0x346C, symSize: 0x28 }
  - { offsetInCU: 0x454D, offset: 0x454D, size: 0x8, addend: 0x0, symName: __ZL95__struct_compiled_op_m9c5cb18376121c810be1c85c5ee29fcfd4fda463f9a64b7d925f65ee66901bb4_executorPN12_GLOBAL__N_186__struct_compiled_op_m9c5cb18376121c810be1c85c5ee29fcfd4fda463f9a64b7d925f65ee66901bb4E, symObjAddr: 0x3A0, symBinAddr: 0x1EDC, symSize: 0x1460 }
  - { offsetInCU: 0x53FA, offset: 0x53FA, size: 0x8, addend: 0x0, symName: __ZL97__struct_compiled_op_m9c5cb18376121c810be1c85c5ee29fcfd4fda463f9a64b7d925f65ee66901bb4_destructorP7_object, symObjAddr: 0x1800, symBinAddr: 0x333C, symSize: 0x108 }
  - { offsetInCU: 0x5425, offset: 0x5425, size: 0x8, addend: 0x0, symName: __ZL95__struct_compiled_op_m9c5cb18376121c810be1c85c5ee29fcfd4fda463f9a64b7d925f65ee66901bb4_executorPN12_GLOBAL__N_186__struct_compiled_op_m9c5cb18376121c810be1c85c5ee29fcfd4fda463f9a64b7d925f65ee66901bb4E.cold.1, symObjAddr: 0x1958, symBinAddr: 0x3494, symSize: 0x28 }
  - { offsetInCU: 0x5452, offset: 0x5452, size: 0x8, addend: 0x0, symName: __ZL95__struct_compiled_op_m9c5cb18376121c810be1c85c5ee29fcfd4fda463f9a64b7d925f65ee66901bb4_executorPN12_GLOBAL__N_186__struct_compiled_op_m9c5cb18376121c810be1c85c5ee29fcfd4fda463f9a64b7d925f65ee66901bb4E.cold.5, symObjAddr: 0x19F8, symBinAddr: 0x3534, symSize: 0x28 }
  - { offsetInCU: 0x547F, offset: 0x547F, size: 0x8, addend: 0x0, symName: __ZL95__struct_compiled_op_m9c5cb18376121c810be1c85c5ee29fcfd4fda463f9a64b7d925f65ee66901bb4_executorPN12_GLOBAL__N_186__struct_compiled_op_m9c5cb18376121c810be1c85c5ee29fcfd4fda463f9a64b7d925f65ee66901bb4E.cold.7, symObjAddr: 0x1A48, symBinAddr: 0x3584, symSize: 0x28 }
  - { offsetInCU: 0x54AC, offset: 0x54AC, size: 0x8, addend: 0x0, symName: __ZL95__struct_compiled_op_m9c5cb18376121c810be1c85c5ee29fcfd4fda463f9a64b7d925f65ee66901bb4_executorPN12_GLOBAL__N_186__struct_compiled_op_m9c5cb18376121c810be1c85c5ee29fcfd4fda463f9a64b7d925f65ee66901bb4E.cold.8, symObjAddr: 0x1A70, symBinAddr: 0x35AC, symSize: 0x28 }
  - { offsetInCU: 0x54F0, offset: 0x54F0, size: 0x8, addend: 0x0, symName: __ZL95__struct_compiled_op_m9c5cb18376121c810be1c85c5ee29fcfd4fda463f9a64b7d925f65ee66901bb4_executorPN12_GLOBAL__N_186__struct_compiled_op_m9c5cb18376121c810be1c85c5ee29fcfd4fda463f9a64b7d925f65ee66901bb4E.cold.2, symObjAddr: 0x1980, symBinAddr: 0x34BC, symSize: 0x28 }
  - { offsetInCU: 0x551D, offset: 0x551D, size: 0x8, addend: 0x0, symName: __ZL95__struct_compiled_op_m9c5cb18376121c810be1c85c5ee29fcfd4fda463f9a64b7d925f65ee66901bb4_executorPN12_GLOBAL__N_186__struct_compiled_op_m9c5cb18376121c810be1c85c5ee29fcfd4fda463f9a64b7d925f65ee66901bb4E.cold.3, symObjAddr: 0x19A8, symBinAddr: 0x34E4, symSize: 0x28 }
  - { offsetInCU: 0x554A, offset: 0x554A, size: 0x8, addend: 0x0, symName: __ZL95__struct_compiled_op_m9c5cb18376121c810be1c85c5ee29fcfd4fda463f9a64b7d925f65ee66901bb4_executorPN12_GLOBAL__N_186__struct_compiled_op_m9c5cb18376121c810be1c85c5ee29fcfd4fda463f9a64b7d925f65ee66901bb4E.cold.4, symObjAddr: 0x19D0, symBinAddr: 0x350C, symSize: 0x28 }
  - { offsetInCU: 0x5577, offset: 0x5577, size: 0x8, addend: 0x0, symName: __ZL95__struct_compiled_op_m9c5cb18376121c810be1c85c5ee29fcfd4fda463f9a64b7d925f65ee66901bb4_executorPN12_GLOBAL__N_186__struct_compiled_op_m9c5cb18376121c810be1c85c5ee29fcfd4fda463f9a64b7d925f65ee66901bb4E.cold.6, symObjAddr: 0x1A20, symBinAddr: 0x355C, symSize: 0x28 }
  - { offsetInCU: 0x55A4, offset: 0x55A4, size: 0x8, addend: 0x0, symName: __ZL95__struct_compiled_op_m9c5cb18376121c810be1c85c5ee29fcfd4fda463f9a64b7d925f65ee66901bb4_executorPN12_GLOBAL__N_186__struct_compiled_op_m9c5cb18376121c810be1c85c5ee29fcfd4fda463f9a64b7d925f65ee66901bb4E.cold.9, symObjAddr: 0x1A98, symBinAddr: 0x35D4, symSize: 0x28 }
  - { offsetInCU: 0x55D1, offset: 0x55D1, size: 0x8, addend: 0x0, symName: __ZL95__struct_compiled_op_m9c5cb18376121c810be1c85c5ee29fcfd4fda463f9a64b7d925f65ee66901bb4_executorPN12_GLOBAL__N_186__struct_compiled_op_m9c5cb18376121c810be1c85c5ee29fcfd4fda463f9a64b7d925f65ee66901bb4E.cold.10, symObjAddr: 0x1AC0, symBinAddr: 0x35FC, symSize: 0x28 }
  - { offsetInCU: 0x55FE, offset: 0x55FE, size: 0x8, addend: 0x0, symName: __ZL95__struct_compiled_op_m9c5cb18376121c810be1c85c5ee29fcfd4fda463f9a64b7d925f65ee66901bb4_executorPN12_GLOBAL__N_186__struct_compiled_op_m9c5cb18376121c810be1c85c5ee29fcfd4fda463f9a64b7d925f65ee66901bb4E.cold.11, symObjAddr: 0x1AE8, symBinAddr: 0x3624, symSize: 0x28 }
  - { offsetInCU: 0x56FF, offset: 0x56FF, size: 0x8, addend: 0x0, symName: __ZL97__struct_compiled_op_m9c5cb18376121c810be1c85c5ee29fcfd4fda463f9a64b7d925f65ee66901bb4_destructorP7_object, symObjAddr: 0x1800, symBinAddr: 0x333C, symSize: 0x108 }
...
