---
triple:          'arm64-apple-darwin'
binary-path:     '/Users/paulosoares/personal/phd/code/tomcat-coordination/.pytensor_compiles/compiledir_2024.10.16--21.29.11_1/tmp6odfkfy3/m40d0da367cbe984c4753016083b6c4a27b4c34d2cb04311c2c5fb40cff65939f.so'
relocations:
  - { offsetInCU: 0x26, offset: 0x26, size: 0x8, addend: 0x0, symName: __Z29split_output_shape_is_correctP16tagPyArrayObjectS0_il, symObjAddr: 0x0, symBinAddr: 0x18C4, symSize: 0xAC }
  - { offsetInCU: 0x53, offset: 0x53, size: 0x8, addend: 0x0, symName: __ZL11PyArray_API, symObjAddr: 0x12938, symBinAddr: 0x8160, symSize: 0x0 }
  - { offsetInCU: 0x73, offset: 0x73, size: 0x8, addend: 0x0, symName: __ZL9moduledef, symObjAddr: 0x24A8, symBinAddr: 0x80B8, symSize: 0x0 }
  - { offsetInCU: 0xC86, offset: 0xC86, size: 0x8, addend: 0x0, symName: __ZL9MyMethods, symObjAddr: 0x2510, symBinAddr: 0x8120, symSize: 0x0 }
  - { offsetInCU: 0x3B4F, offset: 0x3B4F, size: 0x8, addend: 0x0, symName: __Z29split_output_shape_is_correctP16tagPyArrayObjectS0_il, symObjAddr: 0x0, symBinAddr: 0x18C4, symSize: 0xAC }
  - { offsetInCU: 0x3C1C, offset: 0x3C1C, size: 0x8, addend: 0x0, symName: _PyInit_m40d0da367cbe984c4753016083b6c4a27b4c34d2cb04311c2c5fb40cff65939f, symObjAddr: 0xAC, symBinAddr: 0x1970, symSize: 0x224 }
  - { offsetInCU: 0x3EA5, offset: 0x3EA5, size: 0x8, addend: 0x0, symName: __ZL11instantiateP7_objectS0_, symObjAddr: 0x2D0, symBinAddr: 0x1B94, symSize: 0x148 }
  - { offsetInCU: 0x40F9, offset: 0x40F9, size: 0x8, addend: 0x0, symName: __ZL95__struct_compiled_op_m40d0da367cbe984c4753016083b6c4a27b4c34d2cb04311c2c5fb40cff65939f_executorPN12_GLOBAL__N_186__struct_compiled_op_m40d0da367cbe984c4753016083b6c4a27b4c34d2cb04311c2c5fb40cff65939fE, symObjAddr: 0x418, symBinAddr: 0x1CDC, symSize: 0x1560 }
  - { offsetInCU: 0x4157, offset: 0x4157, size: 0x8, addend: 0x0, symName: __ZL11instantiateP7_objectS0_.cold.1, symObjAddr: 0x1A48, symBinAddr: 0x330C, symSize: 0x28 }
  - { offsetInCU: 0x416E, offset: 0x416E, size: 0x8, addend: 0x0, symName: __ZL11instantiateP7_objectS0_.cold.2, symObjAddr: 0x1A70, symBinAddr: 0x3334, symSize: 0x28 }
  - { offsetInCU: 0x449B, offset: 0x449B, size: 0x8, addend: 0x0, symName: __ZL95__struct_compiled_op_m40d0da367cbe984c4753016083b6c4a27b4c34d2cb04311c2c5fb40cff65939f_executorPN12_GLOBAL__N_186__struct_compiled_op_m40d0da367cbe984c4753016083b6c4a27b4c34d2cb04311c2c5fb40cff65939fE, symObjAddr: 0x418, symBinAddr: 0x1CDC, symSize: 0x1560 }
  - { offsetInCU: 0x534C, offset: 0x534C, size: 0x8, addend: 0x0, symName: __ZL97__struct_compiled_op_m40d0da367cbe984c4753016083b6c4a27b4c34d2cb04311c2c5fb40cff65939f_destructorP7_object, symObjAddr: 0x1978, symBinAddr: 0x323C, symSize: 0xD0 }
  - { offsetInCU: 0x5377, offset: 0x5377, size: 0x8, addend: 0x0, symName: __ZL95__struct_compiled_op_m40d0da367cbe984c4753016083b6c4a27b4c34d2cb04311c2c5fb40cff65939f_executorPN12_GLOBAL__N_186__struct_compiled_op_m40d0da367cbe984c4753016083b6c4a27b4c34d2cb04311c2c5fb40cff65939fE.cold.1, symObjAddr: 0x1A98, symBinAddr: 0x335C, symSize: 0x28 }
  - { offsetInCU: 0x53A4, offset: 0x53A4, size: 0x8, addend: 0x0, symName: __ZL95__struct_compiled_op_m40d0da367cbe984c4753016083b6c4a27b4c34d2cb04311c2c5fb40cff65939f_executorPN12_GLOBAL__N_186__struct_compiled_op_m40d0da367cbe984c4753016083b6c4a27b4c34d2cb04311c2c5fb40cff65939fE.cold.5, symObjAddr: 0x1B38, symBinAddr: 0x33FC, symSize: 0x28 }
  - { offsetInCU: 0x53D1, offset: 0x53D1, size: 0x8, addend: 0x0, symName: __ZL95__struct_compiled_op_m40d0da367cbe984c4753016083b6c4a27b4c34d2cb04311c2c5fb40cff65939f_executorPN12_GLOBAL__N_186__struct_compiled_op_m40d0da367cbe984c4753016083b6c4a27b4c34d2cb04311c2c5fb40cff65939fE.cold.7, symObjAddr: 0x1B88, symBinAddr: 0x344C, symSize: 0x28 }
  - { offsetInCU: 0x53FE, offset: 0x53FE, size: 0x8, addend: 0x0, symName: __ZL95__struct_compiled_op_m40d0da367cbe984c4753016083b6c4a27b4c34d2cb04311c2c5fb40cff65939f_executorPN12_GLOBAL__N_186__struct_compiled_op_m40d0da367cbe984c4753016083b6c4a27b4c34d2cb04311c2c5fb40cff65939fE.cold.9, symObjAddr: 0x1BD8, symBinAddr: 0x349C, symSize: 0x28 }
  - { offsetInCU: 0x544D, offset: 0x544D, size: 0x8, addend: 0x0, symName: __ZL95__struct_compiled_op_m40d0da367cbe984c4753016083b6c4a27b4c34d2cb04311c2c5fb40cff65939f_executorPN12_GLOBAL__N_186__struct_compiled_op_m40d0da367cbe984c4753016083b6c4a27b4c34d2cb04311c2c5fb40cff65939fE.cold.2, symObjAddr: 0x1AC0, symBinAddr: 0x3384, symSize: 0x28 }
  - { offsetInCU: 0x547A, offset: 0x547A, size: 0x8, addend: 0x0, symName: __ZL95__struct_compiled_op_m40d0da367cbe984c4753016083b6c4a27b4c34d2cb04311c2c5fb40cff65939f_executorPN12_GLOBAL__N_186__struct_compiled_op_m40d0da367cbe984c4753016083b6c4a27b4c34d2cb04311c2c5fb40cff65939fE.cold.3, symObjAddr: 0x1AE8, symBinAddr: 0x33AC, symSize: 0x28 }
  - { offsetInCU: 0x54A7, offset: 0x54A7, size: 0x8, addend: 0x0, symName: __ZL95__struct_compiled_op_m40d0da367cbe984c4753016083b6c4a27b4c34d2cb04311c2c5fb40cff65939f_executorPN12_GLOBAL__N_186__struct_compiled_op_m40d0da367cbe984c4753016083b6c4a27b4c34d2cb04311c2c5fb40cff65939fE.cold.4, symObjAddr: 0x1B10, symBinAddr: 0x33D4, symSize: 0x28 }
  - { offsetInCU: 0x54D4, offset: 0x54D4, size: 0x8, addend: 0x0, symName: __ZL95__struct_compiled_op_m40d0da367cbe984c4753016083b6c4a27b4c34d2cb04311c2c5fb40cff65939f_executorPN12_GLOBAL__N_186__struct_compiled_op_m40d0da367cbe984c4753016083b6c4a27b4c34d2cb04311c2c5fb40cff65939fE.cold.6, symObjAddr: 0x1B60, symBinAddr: 0x3424, symSize: 0x28 }
  - { offsetInCU: 0x5501, offset: 0x5501, size: 0x8, addend: 0x0, symName: __ZL95__struct_compiled_op_m40d0da367cbe984c4753016083b6c4a27b4c34d2cb04311c2c5fb40cff65939f_executorPN12_GLOBAL__N_186__struct_compiled_op_m40d0da367cbe984c4753016083b6c4a27b4c34d2cb04311c2c5fb40cff65939fE.cold.8, symObjAddr: 0x1BB0, symBinAddr: 0x3474, symSize: 0x28 }
  - { offsetInCU: 0x552E, offset: 0x552E, size: 0x8, addend: 0x0, symName: __ZL95__struct_compiled_op_m40d0da367cbe984c4753016083b6c4a27b4c34d2cb04311c2c5fb40cff65939f_executorPN12_GLOBAL__N_186__struct_compiled_op_m40d0da367cbe984c4753016083b6c4a27b4c34d2cb04311c2c5fb40cff65939fE.cold.10, symObjAddr: 0x1C00, symBinAddr: 0x34C4, symSize: 0x28 }
  - { offsetInCU: 0x560B, offset: 0x560B, size: 0x8, addend: 0x0, symName: __ZL97__struct_compiled_op_m40d0da367cbe984c4753016083b6c4a27b4c34d2cb04311c2c5fb40cff65939f_destructorP7_object, symObjAddr: 0x1978, symBinAddr: 0x323C, symSize: 0xD0 }
...
