---
triple:          'arm64-apple-darwin'
binary-path:     '/Users/paulosoares/personal/phd/code/tomcat-coordination/.pytensor_compiles/compiledir_2024.10.16--21.29.11_0/tmpggsmfycd/m445668d81de955ccc5ab42f8ab90e0bc57ee331bf63f7b23cf40898b85f989e5.so'
relocations:
  - { offsetInCU: 0x26, offset: 0x26, size: 0x8, addend: 0x0, symName: _PyInit_m445668d81de955ccc5ab42f8ab90e0bc57ee331bf63f7b23cf40898b85f989e5, symObjAddr: 0x0, symBinAddr: 0x1A8C, symSize: 0x224 }
  - { offsetInCU: 0x53, offset: 0x53, size: 0x8, addend: 0x0, symName: __ZL11PyArray_API, symObjAddr: 0x12998, symBinAddr: 0x8138, symSize: 0x0 }
  - { offsetInCU: 0x73, offset: 0x73, size: 0x8, addend: 0x0, symName: __ZL9moduledef, symObjAddr: 0x2358, symBinAddr: 0x8090, symSize: 0x0 }
  - { offsetInCU: 0xC86, offset: 0xC86, size: 0x8, addend: 0x0, symName: __ZL9MyMethods, symObjAddr: 0x23C0, symBinAddr: 0x80F8, symSize: 0x0 }
  - { offsetInCU: 0x3C1E, offset: 0x3C1E, size: 0x8, addend: 0x0, symName: _PyInit_m445668d81de955ccc5ab42f8ab90e0bc57ee331bf63f7b23cf40898b85f989e5, symObjAddr: 0x0, symBinAddr: 0x1A8C, symSize: 0x224 }
  - { offsetInCU: 0x3EED, offset: 0x3EED, size: 0x8, addend: 0x0, symName: __ZL11instantiateP7_objectS0_, symObjAddr: 0x224, symBinAddr: 0x1CB0, symSize: 0x17C }
  - { offsetInCU: 0x41FA, offset: 0x41FA, size: 0x8, addend: 0x0, symName: __ZL95__struct_compiled_op_m445668d81de955ccc5ab42f8ab90e0bc57ee331bf63f7b23cf40898b85f989e5_executorPN12_GLOBAL__N_186__struct_compiled_op_m445668d81de955ccc5ab42f8ab90e0bc57ee331bf63f7b23cf40898b85f989e5E, symObjAddr: 0x3A0, symBinAddr: 0x1E2C, symSize: 0x1510 }
  - { offsetInCU: 0x4258, offset: 0x4258, size: 0x8, addend: 0x0, symName: __ZL11instantiateP7_objectS0_.cold.1, symObjAddr: 0x19B8, symBinAddr: 0x3444, symSize: 0x28 }
  - { offsetInCU: 0x426F, offset: 0x426F, size: 0x8, addend: 0x0, symName: __ZL11instantiateP7_objectS0_.cold.2, symObjAddr: 0x19E0, symBinAddr: 0x346C, symSize: 0x28 }
  - { offsetInCU: 0x45E1, offset: 0x45E1, size: 0x8, addend: 0x0, symName: __ZL95__struct_compiled_op_m445668d81de955ccc5ab42f8ab90e0bc57ee331bf63f7b23cf40898b85f989e5_executorPN12_GLOBAL__N_186__struct_compiled_op_m445668d81de955ccc5ab42f8ab90e0bc57ee331bf63f7b23cf40898b85f989e5E, symObjAddr: 0x3A0, symBinAddr: 0x1E2C, symSize: 0x1510 }
  - { offsetInCU: 0x550B, offset: 0x550B, size: 0x8, addend: 0x0, symName: __ZL97__struct_compiled_op_m445668d81de955ccc5ab42f8ab90e0bc57ee331bf63f7b23cf40898b85f989e5_destructorP7_object, symObjAddr: 0x18B0, symBinAddr: 0x333C, symSize: 0x108 }
  - { offsetInCU: 0x5536, offset: 0x5536, size: 0x8, addend: 0x0, symName: __ZL95__struct_compiled_op_m445668d81de955ccc5ab42f8ab90e0bc57ee331bf63f7b23cf40898b85f989e5_executorPN12_GLOBAL__N_186__struct_compiled_op_m445668d81de955ccc5ab42f8ab90e0bc57ee331bf63f7b23cf40898b85f989e5E.cold.1, symObjAddr: 0x1A08, symBinAddr: 0x3494, symSize: 0x28 }
  - { offsetInCU: 0x5563, offset: 0x5563, size: 0x8, addend: 0x0, symName: __ZL95__struct_compiled_op_m445668d81de955ccc5ab42f8ab90e0bc57ee331bf63f7b23cf40898b85f989e5_executorPN12_GLOBAL__N_186__struct_compiled_op_m445668d81de955ccc5ab42f8ab90e0bc57ee331bf63f7b23cf40898b85f989e5E.cold.5, symObjAddr: 0x1AA8, symBinAddr: 0x3534, symSize: 0x28 }
  - { offsetInCU: 0x5590, offset: 0x5590, size: 0x8, addend: 0x0, symName: __ZL95__struct_compiled_op_m445668d81de955ccc5ab42f8ab90e0bc57ee331bf63f7b23cf40898b85f989e5_executorPN12_GLOBAL__N_186__struct_compiled_op_m445668d81de955ccc5ab42f8ab90e0bc57ee331bf63f7b23cf40898b85f989e5E.cold.7, symObjAddr: 0x1AF8, symBinAddr: 0x3584, symSize: 0x28 }
  - { offsetInCU: 0x55BD, offset: 0x55BD, size: 0x8, addend: 0x0, symName: __ZL95__struct_compiled_op_m445668d81de955ccc5ab42f8ab90e0bc57ee331bf63f7b23cf40898b85f989e5_executorPN12_GLOBAL__N_186__struct_compiled_op_m445668d81de955ccc5ab42f8ab90e0bc57ee331bf63f7b23cf40898b85f989e5E.cold.8, symObjAddr: 0x1B20, symBinAddr: 0x35AC, symSize: 0x28 }
  - { offsetInCU: 0x5601, offset: 0x5601, size: 0x8, addend: 0x0, symName: __ZL95__struct_compiled_op_m445668d81de955ccc5ab42f8ab90e0bc57ee331bf63f7b23cf40898b85f989e5_executorPN12_GLOBAL__N_186__struct_compiled_op_m445668d81de955ccc5ab42f8ab90e0bc57ee331bf63f7b23cf40898b85f989e5E.cold.2, symObjAddr: 0x1A30, symBinAddr: 0x34BC, symSize: 0x28 }
  - { offsetInCU: 0x562E, offset: 0x562E, size: 0x8, addend: 0x0, symName: __ZL95__struct_compiled_op_m445668d81de955ccc5ab42f8ab90e0bc57ee331bf63f7b23cf40898b85f989e5_executorPN12_GLOBAL__N_186__struct_compiled_op_m445668d81de955ccc5ab42f8ab90e0bc57ee331bf63f7b23cf40898b85f989e5E.cold.3, symObjAddr: 0x1A58, symBinAddr: 0x34E4, symSize: 0x28 }
  - { offsetInCU: 0x565B, offset: 0x565B, size: 0x8, addend: 0x0, symName: __ZL95__struct_compiled_op_m445668d81de955ccc5ab42f8ab90e0bc57ee331bf63f7b23cf40898b85f989e5_executorPN12_GLOBAL__N_186__struct_compiled_op_m445668d81de955ccc5ab42f8ab90e0bc57ee331bf63f7b23cf40898b85f989e5E.cold.4, symObjAddr: 0x1A80, symBinAddr: 0x350C, symSize: 0x28 }
  - { offsetInCU: 0x5688, offset: 0x5688, size: 0x8, addend: 0x0, symName: __ZL95__struct_compiled_op_m445668d81de955ccc5ab42f8ab90e0bc57ee331bf63f7b23cf40898b85f989e5_executorPN12_GLOBAL__N_186__struct_compiled_op_m445668d81de955ccc5ab42f8ab90e0bc57ee331bf63f7b23cf40898b85f989e5E.cold.6, symObjAddr: 0x1AD0, symBinAddr: 0x355C, symSize: 0x28 }
  - { offsetInCU: 0x56B5, offset: 0x56B5, size: 0x8, addend: 0x0, symName: __ZL95__struct_compiled_op_m445668d81de955ccc5ab42f8ab90e0bc57ee331bf63f7b23cf40898b85f989e5_executorPN12_GLOBAL__N_186__struct_compiled_op_m445668d81de955ccc5ab42f8ab90e0bc57ee331bf63f7b23cf40898b85f989e5E.cold.9, symObjAddr: 0x1B48, symBinAddr: 0x35D4, symSize: 0x28 }
  - { offsetInCU: 0x56E2, offset: 0x56E2, size: 0x8, addend: 0x0, symName: __ZL95__struct_compiled_op_m445668d81de955ccc5ab42f8ab90e0bc57ee331bf63f7b23cf40898b85f989e5_executorPN12_GLOBAL__N_186__struct_compiled_op_m445668d81de955ccc5ab42f8ab90e0bc57ee331bf63f7b23cf40898b85f989e5E.cold.10, symObjAddr: 0x1B70, symBinAddr: 0x35FC, symSize: 0x28 }
  - { offsetInCU: 0x570F, offset: 0x570F, size: 0x8, addend: 0x0, symName: __ZL95__struct_compiled_op_m445668d81de955ccc5ab42f8ab90e0bc57ee331bf63f7b23cf40898b85f989e5_executorPN12_GLOBAL__N_186__struct_compiled_op_m445668d81de955ccc5ab42f8ab90e0bc57ee331bf63f7b23cf40898b85f989e5E.cold.11, symObjAddr: 0x1B98, symBinAddr: 0x3624, symSize: 0x28 }
  - { offsetInCU: 0x5810, offset: 0x5810, size: 0x8, addend: 0x0, symName: __ZL97__struct_compiled_op_m445668d81de955ccc5ab42f8ab90e0bc57ee331bf63f7b23cf40898b85f989e5_destructorP7_object, symObjAddr: 0x18B0, symBinAddr: 0x333C, symSize: 0x108 }
...
