---
triple:          'arm64-apple-darwin'
binary-path:     '/Users/paulosoares/personal/phd/code/tomcat-coordination/.pytensor_compiles/compiledir_2024.10.16--21.28.53_0/tmpeq_944v2/m0cc18870e2b7b09f69bef2f8e55b586e5c14020f40f14d340106efdb51720436.so'
relocations:
  - { offsetInCU: 0x26, offset: 0x26, size: 0x8, addend: 0x0, symName: _PyInit_m0cc18870e2b7b09f69bef2f8e55b586e5c14020f40f14d340106efdb51720436, symObjAddr: 0x0, symBinAddr: 0x4678, symSize: 0x224 }
  - { offsetInCU: 0x53, offset: 0x53, size: 0x8, addend: 0x0, symName: __ZL11PyArray_API, symObjAddr: 0x2A480, symBinAddr: 0xC148, symSize: 0x0 }
  - { offsetInCU: 0x73, offset: 0x73, size: 0x8, addend: 0x0, symName: __ZL9moduledef, symObjAddr: 0x3738, symBinAddr: 0xC0A0, symSize: 0x0 }
  - { offsetInCU: 0xC86, offset: 0xC86, size: 0x8, addend: 0x0, symName: __ZL9MyMethods, symObjAddr: 0x37A0, symBinAddr: 0xC108, symSize: 0x0 }
  - { offsetInCU: 0x20BF, offset: 0x20BF, size: 0x8, addend: 0x0, symName: __ZNSt3__111__sift_downB8un170006INS_17_ClassicAlgPolicyERNS_6__lessIvvEENS_16reverse_iteratorINS_11__wrap_iterIPNS_4pairIiiEEEEEEEEvT1_OT0_NS_15iterator_traitsISC_E15difference_typeESC_, symObjAddr: 0x1B9C, symBinAddr: 0x6214, symSize: 0x130 }
  - { offsetInCU: 0x23D3, offset: 0x23D3, size: 0x8, addend: 0x0, symName: __ZNSt3__111__introsortINS_17_ClassicAlgPolicyERNS_6__lessIvvEENS_16reverse_iteratorINS_11__wrap_iterIPNS_4pairIiiEEEEEELb0EEEvT1_SC_T0_NS_15iterator_traitsISC_E15difference_typeEb, symObjAddr: 0x1E28, symBinAddr: 0x64A0, symSize: 0x760 }
  - { offsetInCU: 0x3667, offset: 0x3667, size: 0x8, addend: 0x0, symName: __ZNSt3__131__partition_with_equals_on_leftB8un170006INS_17_ClassicAlgPolicyENS_16reverse_iteratorINS_11__wrap_iterIPNS_4pairIiiEEEEEERNS_6__lessIvvEEEET0_SC_SC_T1_, symObjAddr: 0x271C, symBinAddr: 0x6D94, symSize: 0x18C }
  - { offsetInCU: 0x39E5, offset: 0x39E5, size: 0x8, addend: 0x0, symName: __ZNSt3__132__partition_with_equals_on_rightB8un170006INS_17_ClassicAlgPolicyENS_16reverse_iteratorINS_11__wrap_iterIPNS_4pairIiiEEEEEERNS_6__lessIvvEEEENS4_IT0_bEESC_SC_T1_, symObjAddr: 0x28A8, symBinAddr: 0x6F20, symSize: 0x150 }
  - { offsetInCU: 0x3DFB, offset: 0x3DFB, size: 0x8, addend: 0x0, symName: __ZNSt3__127__insertion_sort_incompleteB8un170006INS_17_ClassicAlgPolicyERNS_6__lessIvvEENS_16reverse_iteratorINS_11__wrap_iterIPNS_4pairIiiEEEEEEEEbT1_SC_T0_, symObjAddr: 0x29F8, symBinAddr: 0x7070, symSize: 0x334 }
  - { offsetInCU: 0x5A9E, offset: 0x5A9E, size: 0x8, addend: 0x0, symName: __ZNSt3__119__partial_sort_implB8un170006INS_17_ClassicAlgPolicyERNS_6__lessIvvEENS_16reverse_iteratorINS_11__wrap_iterIPNS_4pairIiiEEEEEESB_EET1_SC_SC_T2_OT0_, symObjAddr: 0x1A30, symBinAddr: 0x60A8, symSize: 0x16C }
  - { offsetInCU: 0x5DF1, offset: 0x5DF1, size: 0x8, addend: 0x0, symName: __ZNSt3__110__pop_heapB8un170006INS_17_ClassicAlgPolicyENS_6__lessIvvEENS_16reverse_iteratorINS_11__wrap_iterIPNS_4pairIiiEEEEEEEEvT1_SB_RT0_NS_15iterator_traitsISB_E15difference_typeE, symObjAddr: 0x1CCC, symBinAddr: 0x6344, symSize: 0x15C }
  - { offsetInCU: 0x668C, offset: 0x668C, size: 0x8, addend: 0x0, symName: __ZNSt3__17__sort3B8un170006INS_17_ClassicAlgPolicyERNS_6__lessIvvEENS_16reverse_iteratorINS_11__wrap_iterIPNS_4pairIiiEEEEEEEEjT1_SC_SC_T0_, symObjAddr: 0x2588, symBinAddr: 0x6C00, symSize: 0x194 }
  - { offsetInCU: 0x66F6, offset: 0x66F6, size: 0x8, addend: 0x0, symName: __ZNSt3__17__sort3B8un170006INS_17_ClassicAlgPolicyERNS_6__lessIvvEENS_16reverse_iteratorINS_11__wrap_iterIPNS_4pairIiiEEEEEEEEjT1_SC_SC_T0_, symObjAddr: 0x2588, symBinAddr: 0x6C00, symSize: 0x194 }
  - { offsetInCU: 0x671C, offset: 0x671C, size: 0x8, addend: 0x0, symName: __ZNSt3__17__sort3B8un170006INS_17_ClassicAlgPolicyERNS_6__lessIvvEENS_16reverse_iteratorINS_11__wrap_iterIPNS_4pairIiiEEEEEEEEjT1_SC_SC_T0_, symObjAddr: 0x2588, symBinAddr: 0x6C00, symSize: 0x194 }
  - { offsetInCU: 0x6B3A, offset: 0x6B3A, size: 0x8, addend: 0x0, symName: __ZNSt3__17__sort5B8un170006INS_17_ClassicAlgPolicyERNS_6__lessIvvEENS_16reverse_iteratorINS_11__wrap_iterIPNS_4pairIiiEEEEEEEEvT1_SC_SC_SC_SC_T0_, symObjAddr: 0x2D2C, symBinAddr: 0x73A4, symSize: 0x21C }
  - { offsetInCU: 0x9AE8, offset: 0x9AE8, size: 0x8, addend: 0x0, symName: _PyInit_m0cc18870e2b7b09f69bef2f8e55b586e5c14020f40f14d340106efdb51720436, symObjAddr: 0x0, symBinAddr: 0x4678, symSize: 0x224 }
  - { offsetInCU: 0x9D6E, offset: 0x9D6E, size: 0x8, addend: 0x0, symName: __ZL11instantiateP7_objectS0_, symObjAddr: 0x224, symBinAddr: 0x489C, symSize: 0x120 }
  - { offsetInCU: 0x9F5A, offset: 0x9F5A, size: 0x8, addend: 0x0, symName: __ZL95__struct_compiled_op_m0cc18870e2b7b09f69bef2f8e55b586e5c14020f40f14d340106efdb51720436_executorPN12_GLOBAL__N_186__struct_compiled_op_m0cc18870e2b7b09f69bef2f8e55b586e5c14020f40f14d340106efdb51720436E, symObjAddr: 0x344, symBinAddr: 0x49BC, symSize: 0x1654 }
  - { offsetInCU: 0x9FCF, offset: 0x9FCF, size: 0x8, addend: 0x0, symName: __ZL11instantiateP7_objectS0_.cold.1, symObjAddr: 0x2F48, symBinAddr: 0x75C0, symSize: 0x28 }
  - { offsetInCU: 0x9FE7, offset: 0x9FE7, size: 0x8, addend: 0x0, symName: __ZL11instantiateP7_objectS0_.cold.2, symObjAddr: 0x2F70, symBinAddr: 0x75E8, symSize: 0x28 }
  - { offsetInCU: 0xA567, offset: 0xA567, size: 0x8, addend: 0x0, symName: __ZL95__struct_compiled_op_m0cc18870e2b7b09f69bef2f8e55b586e5c14020f40f14d340106efdb51720436_executorPN12_GLOBAL__N_186__struct_compiled_op_m0cc18870e2b7b09f69bef2f8e55b586e5c14020f40f14d340106efdb51720436E, symObjAddr: 0x344, symBinAddr: 0x49BC, symSize: 0x1654 }
  - { offsetInCU: 0xB290, offset: 0xB290, size: 0x8, addend: 0x0, symName: __ZL95__struct_compiled_op_m0cc18870e2b7b09f69bef2f8e55b586e5c14020f40f14d340106efdb51720436_executorPN12_GLOBAL__N_186__struct_compiled_op_m0cc18870e2b7b09f69bef2f8e55b586e5c14020f40f14d340106efdb51720436E.cold.1, symObjAddr: 0x2F98, symBinAddr: 0x7610, symSize: 0x28 }
  - { offsetInCU: 0xB2BE, offset: 0xB2BE, size: 0x8, addend: 0x0, symName: __ZL95__struct_compiled_op_m0cc18870e2b7b09f69bef2f8e55b586e5c14020f40f14d340106efdb51720436_executorPN12_GLOBAL__N_186__struct_compiled_op_m0cc18870e2b7b09f69bef2f8e55b586e5c14020f40f14d340106efdb51720436E.cold.5, symObjAddr: 0x3038, symBinAddr: 0x76B0, symSize: 0x28 }
  - { offsetInCU: 0xB314, offset: 0xB314, size: 0x8, addend: 0x0, symName: __ZL95__struct_compiled_op_m0cc18870e2b7b09f69bef2f8e55b586e5c14020f40f14d340106efdb51720436_executorPN12_GLOBAL__N_186__struct_compiled_op_m0cc18870e2b7b09f69bef2f8e55b586e5c14020f40f14d340106efdb51720436E.cold.2, symObjAddr: 0x2FC0, symBinAddr: 0x7638, symSize: 0x28 }
  - { offsetInCU: 0xB342, offset: 0xB342, size: 0x8, addend: 0x0, symName: __ZL95__struct_compiled_op_m0cc18870e2b7b09f69bef2f8e55b586e5c14020f40f14d340106efdb51720436_executorPN12_GLOBAL__N_186__struct_compiled_op_m0cc18870e2b7b09f69bef2f8e55b586e5c14020f40f14d340106efdb51720436E.cold.3, symObjAddr: 0x2FE8, symBinAddr: 0x7660, symSize: 0x28 }
  - { offsetInCU: 0xB370, offset: 0xB370, size: 0x8, addend: 0x0, symName: __ZL95__struct_compiled_op_m0cc18870e2b7b09f69bef2f8e55b586e5c14020f40f14d340106efdb51720436_executorPN12_GLOBAL__N_186__struct_compiled_op_m0cc18870e2b7b09f69bef2f8e55b586e5c14020f40f14d340106efdb51720436E.cold.4, symObjAddr: 0x3010, symBinAddr: 0x7688, symSize: 0x28 }
  - { offsetInCU: 0xB39E, offset: 0xB39E, size: 0x8, addend: 0x0, symName: __ZL95__struct_compiled_op_m0cc18870e2b7b09f69bef2f8e55b586e5c14020f40f14d340106efdb51720436_executorPN12_GLOBAL__N_186__struct_compiled_op_m0cc18870e2b7b09f69bef2f8e55b586e5c14020f40f14d340106efdb51720436E.cold.6, symObjAddr: 0x3060, symBinAddr: 0x76D8, symSize: 0x28 }
  - { offsetInCU: 0xB3CC, offset: 0xB3CC, size: 0x8, addend: 0x0, symName: __ZL95__struct_compiled_op_m0cc18870e2b7b09f69bef2f8e55b586e5c14020f40f14d340106efdb51720436_executorPN12_GLOBAL__N_186__struct_compiled_op_m0cc18870e2b7b09f69bef2f8e55b586e5c14020f40f14d340106efdb51720436E.cold.7, symObjAddr: 0x3088, symBinAddr: 0x7700, symSize: 0x28 }
  - { offsetInCU: 0xB490, offset: 0xB490, size: 0x8, addend: 0x0, symName: __ZL97__struct_compiled_op_m0cc18870e2b7b09f69bef2f8e55b586e5c14020f40f14d340106efdb51720436_destructorP7_object, symObjAddr: 0x1998, symBinAddr: 0x6010, symSize: 0x98 }
...
