---
triple:          'arm64-apple-darwin'
binary-path:     '/Users/paulosoares/personal/phd/code/tomcat-coordination/.pytensor_compiles/compiledir_2024.10.16--21.29.11_1/tmpdq6s3_gu/m4e605599e645bf69bbd1568b29cdaf8bb7681df4b081603d79e37a9a57e914af.so'
relocations:
  - { offsetInCU: 0x26, offset: 0x26, size: 0x8, addend: 0x0, symName: _PyInit_m4e605599e645bf69bbd1568b29cdaf8bb7681df4b081603d79e37a9a57e914af, symObjAddr: 0x0, symBinAddr: 0x4080, symSize: 0x224 }
  - { offsetInCU: 0x53, offset: 0x53, size: 0x8, addend: 0x0, symName: __ZL11PyArray_API, symObjAddr: 0x2CE90, symBinAddr: 0xC140, symSize: 0x0 }
  - { offsetInCU: 0x73, offset: 0x73, size: 0x8, addend: 0x0, symName: __ZL9moduledef, symObjAddr: 0x3D48, symBinAddr: 0xC098, symSize: 0x0 }
  - { offsetInCU: 0xC86, offset: 0xC86, size: 0x8, addend: 0x0, symName: __ZL9MyMethods, symObjAddr: 0x3DB0, symBinAddr: 0xC100, symSize: 0x0 }
  - { offsetInCU: 0x20BF, offset: 0x20BF, size: 0x8, addend: 0x0, symName: __ZNSt3__111__sift_downB8un170006INS_17_ClassicAlgPolicyERNS_6__lessIvvEENS_16reverse_iteratorINS_11__wrap_iterIPNS_4pairIiiEEEEEEEEvT1_OT0_NS_15iterator_traitsISC_E15difference_typeESC_, symObjAddr: 0x1FB4, symBinAddr: 0x6034, symSize: 0x130 }
  - { offsetInCU: 0x23D3, offset: 0x23D3, size: 0x8, addend: 0x0, symName: __ZNSt3__111__introsortINS_17_ClassicAlgPolicyERNS_6__lessIvvEENS_16reverse_iteratorINS_11__wrap_iterIPNS_4pairIiiEEEEEELb0EEEvT1_SC_T0_NS_15iterator_traitsISC_E15difference_typeEb, symObjAddr: 0x2240, symBinAddr: 0x62C0, symSize: 0x760 }
  - { offsetInCU: 0x3667, offset: 0x3667, size: 0x8, addend: 0x0, symName: __ZNSt3__131__partition_with_equals_on_leftB8un170006INS_17_ClassicAlgPolicyENS_16reverse_iteratorINS_11__wrap_iterIPNS_4pairIiiEEEEEERNS_6__lessIvvEEEET0_SC_SC_T1_, symObjAddr: 0x2B34, symBinAddr: 0x6BB4, symSize: 0x18C }
  - { offsetInCU: 0x39E5, offset: 0x39E5, size: 0x8, addend: 0x0, symName: __ZNSt3__132__partition_with_equals_on_rightB8un170006INS_17_ClassicAlgPolicyENS_16reverse_iteratorINS_11__wrap_iterIPNS_4pairIiiEEEEEERNS_6__lessIvvEEEENS4_IT0_bEESC_SC_T1_, symObjAddr: 0x2CC0, symBinAddr: 0x6D40, symSize: 0x150 }
  - { offsetInCU: 0x3DFB, offset: 0x3DFB, size: 0x8, addend: 0x0, symName: __ZNSt3__127__insertion_sort_incompleteB8un170006INS_17_ClassicAlgPolicyERNS_6__lessIvvEENS_16reverse_iteratorINS_11__wrap_iterIPNS_4pairIiiEEEEEEEEbT1_SC_T0_, symObjAddr: 0x2E10, symBinAddr: 0x6E90, symSize: 0x334 }
  - { offsetInCU: 0x5A5E, offset: 0x5A5E, size: 0x8, addend: 0x0, symName: __ZNSt3__119__partial_sort_implB8un170006INS_17_ClassicAlgPolicyERNS_6__lessIvvEENS_16reverse_iteratorINS_11__wrap_iterIPNS_4pairIiiEEEEEESB_EET1_SC_SC_T2_OT0_, symObjAddr: 0x1E48, symBinAddr: 0x5EC8, symSize: 0x16C }
  - { offsetInCU: 0x5DB1, offset: 0x5DB1, size: 0x8, addend: 0x0, symName: __ZNSt3__110__pop_heapB8un170006INS_17_ClassicAlgPolicyENS_6__lessIvvEENS_16reverse_iteratorINS_11__wrap_iterIPNS_4pairIiiEEEEEEEEvT1_SB_RT0_NS_15iterator_traitsISB_E15difference_typeE, symObjAddr: 0x20E4, symBinAddr: 0x6164, symSize: 0x15C }
  - { offsetInCU: 0x664C, offset: 0x664C, size: 0x8, addend: 0x0, symName: __ZNSt3__17__sort3B8un170006INS_17_ClassicAlgPolicyERNS_6__lessIvvEENS_16reverse_iteratorINS_11__wrap_iterIPNS_4pairIiiEEEEEEEEjT1_SC_SC_T0_, symObjAddr: 0x29A0, symBinAddr: 0x6A20, symSize: 0x194 }
  - { offsetInCU: 0x66B6, offset: 0x66B6, size: 0x8, addend: 0x0, symName: __ZNSt3__17__sort3B8un170006INS_17_ClassicAlgPolicyERNS_6__lessIvvEENS_16reverse_iteratorINS_11__wrap_iterIPNS_4pairIiiEEEEEEEEjT1_SC_SC_T0_, symObjAddr: 0x29A0, symBinAddr: 0x6A20, symSize: 0x194 }
  - { offsetInCU: 0x66DC, offset: 0x66DC, size: 0x8, addend: 0x0, symName: __ZNSt3__17__sort3B8un170006INS_17_ClassicAlgPolicyERNS_6__lessIvvEENS_16reverse_iteratorINS_11__wrap_iterIPNS_4pairIiiEEEEEEEEjT1_SC_SC_T0_, symObjAddr: 0x29A0, symBinAddr: 0x6A20, symSize: 0x194 }
  - { offsetInCU: 0x6AFA, offset: 0x6AFA, size: 0x8, addend: 0x0, symName: __ZNSt3__17__sort5B8un170006INS_17_ClassicAlgPolicyERNS_6__lessIvvEENS_16reverse_iteratorINS_11__wrap_iterIPNS_4pairIiiEEEEEEEEvT1_SC_SC_SC_SC_T0_, symObjAddr: 0x3144, symBinAddr: 0x71C4, symSize: 0x21C }
  - { offsetInCU: 0x9AB7, offset: 0x9AB7, size: 0x8, addend: 0x0, symName: _PyInit_m4e605599e645bf69bbd1568b29cdaf8bb7681df4b081603d79e37a9a57e914af, symObjAddr: 0x0, symBinAddr: 0x4080, symSize: 0x224 }
  - { offsetInCU: 0x9DA7, offset: 0x9DA7, size: 0x8, addend: 0x0, symName: __ZL11instantiateP7_objectS0_, symObjAddr: 0x224, symBinAddr: 0x42A4, symSize: 0x198 }
  - { offsetInCU: 0xA10C, offset: 0xA10C, size: 0x8, addend: 0x0, symName: __ZL95__struct_compiled_op_m4e605599e645bf69bbd1568b29cdaf8bb7681df4b081603d79e37a9a57e914af_executorPN12_GLOBAL__N_186__struct_compiled_op_m4e605599e645bf69bbd1568b29cdaf8bb7681df4b081603d79e37a9a57e914afE, symObjAddr: 0x3BC, symBinAddr: 0x443C, symSize: 0x1968 }
  - { offsetInCU: 0xA181, offset: 0xA181, size: 0x8, addend: 0x0, symName: __ZL11instantiateP7_objectS0_.cold.1, symObjAddr: 0x3360, symBinAddr: 0x73E0, symSize: 0x28 }
  - { offsetInCU: 0xA199, offset: 0xA199, size: 0x8, addend: 0x0, symName: __ZL11instantiateP7_objectS0_.cold.2, symObjAddr: 0x3388, symBinAddr: 0x7408, symSize: 0x28 }
  - { offsetInCU: 0xA8B8, offset: 0xA8B8, size: 0x8, addend: 0x0, symName: __ZL95__struct_compiled_op_m4e605599e645bf69bbd1568b29cdaf8bb7681df4b081603d79e37a9a57e914af_executorPN12_GLOBAL__N_186__struct_compiled_op_m4e605599e645bf69bbd1568b29cdaf8bb7681df4b081603d79e37a9a57e914afE, symObjAddr: 0x3BC, symBinAddr: 0x443C, symSize: 0x1968 }
  - { offsetInCU: 0xBD05, offset: 0xBD05, size: 0x8, addend: 0x0, symName: __ZL97__struct_compiled_op_m4e605599e645bf69bbd1568b29cdaf8bb7681df4b081603d79e37a9a57e914af_destructorP7_object, symObjAddr: 0x1D24, symBinAddr: 0x5DA4, symSize: 0x124 }
  - { offsetInCU: 0xBD31, offset: 0xBD31, size: 0x8, addend: 0x0, symName: __ZL95__struct_compiled_op_m4e605599e645bf69bbd1568b29cdaf8bb7681df4b081603d79e37a9a57e914af_executorPN12_GLOBAL__N_186__struct_compiled_op_m4e605599e645bf69bbd1568b29cdaf8bb7681df4b081603d79e37a9a57e914afE.cold.1, symObjAddr: 0x33B0, symBinAddr: 0x7430, symSize: 0x28 }
  - { offsetInCU: 0xBD5F, offset: 0xBD5F, size: 0x8, addend: 0x0, symName: __ZL95__struct_compiled_op_m4e605599e645bf69bbd1568b29cdaf8bb7681df4b081603d79e37a9a57e914af_executorPN12_GLOBAL__N_186__struct_compiled_op_m4e605599e645bf69bbd1568b29cdaf8bb7681df4b081603d79e37a9a57e914afE.cold.5, symObjAddr: 0x3450, symBinAddr: 0x74D0, symSize: 0x28 }
  - { offsetInCU: 0xBD8D, offset: 0xBD8D, size: 0x8, addend: 0x0, symName: __ZL95__struct_compiled_op_m4e605599e645bf69bbd1568b29cdaf8bb7681df4b081603d79e37a9a57e914af_executorPN12_GLOBAL__N_186__struct_compiled_op_m4e605599e645bf69bbd1568b29cdaf8bb7681df4b081603d79e37a9a57e914afE.cold.7, symObjAddr: 0x34A0, symBinAddr: 0x7520, symSize: 0x28 }
  - { offsetInCU: 0xBDBB, offset: 0xBDBB, size: 0x8, addend: 0x0, symName: __ZL95__struct_compiled_op_m4e605599e645bf69bbd1568b29cdaf8bb7681df4b081603d79e37a9a57e914af_executorPN12_GLOBAL__N_186__struct_compiled_op_m4e605599e645bf69bbd1568b29cdaf8bb7681df4b081603d79e37a9a57e914afE.cold.8, symObjAddr: 0x34C8, symBinAddr: 0x7548, symSize: 0x28 }
  - { offsetInCU: 0xBDE9, offset: 0xBDE9, size: 0x8, addend: 0x0, symName: __ZL95__struct_compiled_op_m4e605599e645bf69bbd1568b29cdaf8bb7681df4b081603d79e37a9a57e914af_executorPN12_GLOBAL__N_186__struct_compiled_op_m4e605599e645bf69bbd1568b29cdaf8bb7681df4b081603d79e37a9a57e914afE.cold.9, symObjAddr: 0x34F0, symBinAddr: 0x7570, symSize: 0x28 }
  - { offsetInCU: 0xBE2E, offset: 0xBE2E, size: 0x8, addend: 0x0, symName: __ZL95__struct_compiled_op_m4e605599e645bf69bbd1568b29cdaf8bb7681df4b081603d79e37a9a57e914af_executorPN12_GLOBAL__N_186__struct_compiled_op_m4e605599e645bf69bbd1568b29cdaf8bb7681df4b081603d79e37a9a57e914afE.cold.2, symObjAddr: 0x33D8, symBinAddr: 0x7458, symSize: 0x28 }
  - { offsetInCU: 0xBE5C, offset: 0xBE5C, size: 0x8, addend: 0x0, symName: __ZL95__struct_compiled_op_m4e605599e645bf69bbd1568b29cdaf8bb7681df4b081603d79e37a9a57e914af_executorPN12_GLOBAL__N_186__struct_compiled_op_m4e605599e645bf69bbd1568b29cdaf8bb7681df4b081603d79e37a9a57e914afE.cold.3, symObjAddr: 0x3400, symBinAddr: 0x7480, symSize: 0x28 }
  - { offsetInCU: 0xBE8A, offset: 0xBE8A, size: 0x8, addend: 0x0, symName: __ZL95__struct_compiled_op_m4e605599e645bf69bbd1568b29cdaf8bb7681df4b081603d79e37a9a57e914af_executorPN12_GLOBAL__N_186__struct_compiled_op_m4e605599e645bf69bbd1568b29cdaf8bb7681df4b081603d79e37a9a57e914afE.cold.4, symObjAddr: 0x3428, symBinAddr: 0x74A8, symSize: 0x28 }
  - { offsetInCU: 0xBEB8, offset: 0xBEB8, size: 0x8, addend: 0x0, symName: __ZL95__struct_compiled_op_m4e605599e645bf69bbd1568b29cdaf8bb7681df4b081603d79e37a9a57e914af_executorPN12_GLOBAL__N_186__struct_compiled_op_m4e605599e645bf69bbd1568b29cdaf8bb7681df4b081603d79e37a9a57e914afE.cold.6, symObjAddr: 0x3478, symBinAddr: 0x74F8, symSize: 0x28 }
  - { offsetInCU: 0xBEF7, offset: 0xBEF7, size: 0x8, addend: 0x0, symName: __ZL95__struct_compiled_op_m4e605599e645bf69bbd1568b29cdaf8bb7681df4b081603d79e37a9a57e914af_executorPN12_GLOBAL__N_186__struct_compiled_op_m4e605599e645bf69bbd1568b29cdaf8bb7681df4b081603d79e37a9a57e914afE.cold.10, symObjAddr: 0x3518, symBinAddr: 0x7598, symSize: 0x28 }
  - { offsetInCU: 0xBF25, offset: 0xBF25, size: 0x8, addend: 0x0, symName: __ZL95__struct_compiled_op_m4e605599e645bf69bbd1568b29cdaf8bb7681df4b081603d79e37a9a57e914af_executorPN12_GLOBAL__N_186__struct_compiled_op_m4e605599e645bf69bbd1568b29cdaf8bb7681df4b081603d79e37a9a57e914afE.cold.11, symObjAddr: 0x3540, symBinAddr: 0x75C0, symSize: 0x28 }
  - { offsetInCU: 0xBF53, offset: 0xBF53, size: 0x8, addend: 0x0, symName: __ZL95__struct_compiled_op_m4e605599e645bf69bbd1568b29cdaf8bb7681df4b081603d79e37a9a57e914af_executorPN12_GLOBAL__N_186__struct_compiled_op_m4e605599e645bf69bbd1568b29cdaf8bb7681df4b081603d79e37a9a57e914afE.cold.12, symObjAddr: 0x3568, symBinAddr: 0x75E8, symSize: 0x28 }
  - { offsetInCU: 0xC076, offset: 0xC076, size: 0x8, addend: 0x0, symName: __ZL97__struct_compiled_op_m4e605599e645bf69bbd1568b29cdaf8bb7681df4b081603d79e37a9a57e914af_destructorP7_object, symObjAddr: 0x1D24, symBinAddr: 0x5DA4, symSize: 0x124 }
...
