---
triple:          'arm64-apple-darwin'
binary-path:     '/Users/paulosoares/personal/phd/code/tomcat-coordination/.pytensor_compiles/compiledir_2024.10.16--21.29.11_0/tmp7lcvat89/m9da7736e4694b93c7c971006326e43c5ba03ab9abc5f545cb623dfde18416b6e.so'
relocations:
  - { offsetInCU: 0x26, offset: 0x26, size: 0x8, addend: 0x0, symName: _PyInit_m9da7736e4694b93c7c971006326e43c5ba03ab9abc5f545cb623dfde18416b6e, symObjAddr: 0x0, symBinAddr: 0x1A30, symSize: 0x224 }
  - { offsetInCU: 0x53, offset: 0x53, size: 0x8, addend: 0x0, symName: __ZL11PyArray_API, symObjAddr: 0x12B88, symBinAddr: 0x8138, symSize: 0x0 }
  - { offsetInCU: 0x73, offset: 0x73, size: 0x8, addend: 0x0, symName: __ZL9moduledef, symObjAddr: 0x23B0, symBinAddr: 0x8090, symSize: 0x0 }
  - { offsetInCU: 0xC86, offset: 0xC86, size: 0x8, addend: 0x0, symName: __ZL9MyMethods, symObjAddr: 0x2418, symBinAddr: 0x80F8, symSize: 0x0 }
  - { offsetInCU: 0x3BEC, offset: 0x3BEC, size: 0x8, addend: 0x0, symName: _PyInit_m9da7736e4694b93c7c971006326e43c5ba03ab9abc5f545cb623dfde18416b6e, symObjAddr: 0x0, symBinAddr: 0x1A30, symSize: 0x224 }
  - { offsetInCU: 0x3EBB, offset: 0x3EBB, size: 0x8, addend: 0x0, symName: __ZL11instantiateP7_objectS0_, symObjAddr: 0x224, symBinAddr: 0x1C54, symSize: 0x17C }
  - { offsetInCU: 0x41C8, offset: 0x41C8, size: 0x8, addend: 0x0, symName: __ZL95__struct_compiled_op_m9da7736e4694b93c7c971006326e43c5ba03ab9abc5f545cb623dfde18416b6e_executorPN12_GLOBAL__N_186__struct_compiled_op_m9da7736e4694b93c7c971006326e43c5ba03ab9abc5f545cb623dfde18416b6eE, symObjAddr: 0x3A0, symBinAddr: 0x1DD0, symSize: 0x154C }
  - { offsetInCU: 0x4226, offset: 0x4226, size: 0x8, addend: 0x0, symName: __ZL11instantiateP7_objectS0_.cold.1, symObjAddr: 0x19F4, symBinAddr: 0x3424, symSize: 0x28 }
  - { offsetInCU: 0x423D, offset: 0x423D, size: 0x8, addend: 0x0, symName: __ZL11instantiateP7_objectS0_.cold.2, symObjAddr: 0x1A1C, symBinAddr: 0x344C, symSize: 0x28 }
  - { offsetInCU: 0x45D1, offset: 0x45D1, size: 0x8, addend: 0x0, symName: __ZL95__struct_compiled_op_m9da7736e4694b93c7c971006326e43c5ba03ab9abc5f545cb623dfde18416b6e_executorPN12_GLOBAL__N_186__struct_compiled_op_m9da7736e4694b93c7c971006326e43c5ba03ab9abc5f545cb623dfde18416b6eE, symObjAddr: 0x3A0, symBinAddr: 0x1DD0, symSize: 0x154C }
  - { offsetInCU: 0x54C5, offset: 0x54C5, size: 0x8, addend: 0x0, symName: __ZL97__struct_compiled_op_m9da7736e4694b93c7c971006326e43c5ba03ab9abc5f545cb623dfde18416b6e_destructorP7_object, symObjAddr: 0x18EC, symBinAddr: 0x331C, symSize: 0x108 }
  - { offsetInCU: 0x54F0, offset: 0x54F0, size: 0x8, addend: 0x0, symName: __ZL95__struct_compiled_op_m9da7736e4694b93c7c971006326e43c5ba03ab9abc5f545cb623dfde18416b6e_executorPN12_GLOBAL__N_186__struct_compiled_op_m9da7736e4694b93c7c971006326e43c5ba03ab9abc5f545cb623dfde18416b6eE.cold.1, symObjAddr: 0x1A44, symBinAddr: 0x3474, symSize: 0x28 }
  - { offsetInCU: 0x551D, offset: 0x551D, size: 0x8, addend: 0x0, symName: __ZL95__struct_compiled_op_m9da7736e4694b93c7c971006326e43c5ba03ab9abc5f545cb623dfde18416b6e_executorPN12_GLOBAL__N_186__struct_compiled_op_m9da7736e4694b93c7c971006326e43c5ba03ab9abc5f545cb623dfde18416b6eE.cold.5, symObjAddr: 0x1AE4, symBinAddr: 0x3514, symSize: 0x28 }
  - { offsetInCU: 0x554A, offset: 0x554A, size: 0x8, addend: 0x0, symName: __ZL95__struct_compiled_op_m9da7736e4694b93c7c971006326e43c5ba03ab9abc5f545cb623dfde18416b6e_executorPN12_GLOBAL__N_186__struct_compiled_op_m9da7736e4694b93c7c971006326e43c5ba03ab9abc5f545cb623dfde18416b6eE.cold.7, symObjAddr: 0x1B34, symBinAddr: 0x3564, symSize: 0x28 }
  - { offsetInCU: 0x5577, offset: 0x5577, size: 0x8, addend: 0x0, symName: __ZL95__struct_compiled_op_m9da7736e4694b93c7c971006326e43c5ba03ab9abc5f545cb623dfde18416b6e_executorPN12_GLOBAL__N_186__struct_compiled_op_m9da7736e4694b93c7c971006326e43c5ba03ab9abc5f545cb623dfde18416b6eE.cold.8, symObjAddr: 0x1B5C, symBinAddr: 0x358C, symSize: 0x28 }
  - { offsetInCU: 0x55BB, offset: 0x55BB, size: 0x8, addend: 0x0, symName: __ZL95__struct_compiled_op_m9da7736e4694b93c7c971006326e43c5ba03ab9abc5f545cb623dfde18416b6e_executorPN12_GLOBAL__N_186__struct_compiled_op_m9da7736e4694b93c7c971006326e43c5ba03ab9abc5f545cb623dfde18416b6eE.cold.2, symObjAddr: 0x1A6C, symBinAddr: 0x349C, symSize: 0x28 }
  - { offsetInCU: 0x55E8, offset: 0x55E8, size: 0x8, addend: 0x0, symName: __ZL95__struct_compiled_op_m9da7736e4694b93c7c971006326e43c5ba03ab9abc5f545cb623dfde18416b6e_executorPN12_GLOBAL__N_186__struct_compiled_op_m9da7736e4694b93c7c971006326e43c5ba03ab9abc5f545cb623dfde18416b6eE.cold.3, symObjAddr: 0x1A94, symBinAddr: 0x34C4, symSize: 0x28 }
  - { offsetInCU: 0x5615, offset: 0x5615, size: 0x8, addend: 0x0, symName: __ZL95__struct_compiled_op_m9da7736e4694b93c7c971006326e43c5ba03ab9abc5f545cb623dfde18416b6e_executorPN12_GLOBAL__N_186__struct_compiled_op_m9da7736e4694b93c7c971006326e43c5ba03ab9abc5f545cb623dfde18416b6eE.cold.4, symObjAddr: 0x1ABC, symBinAddr: 0x34EC, symSize: 0x28 }
  - { offsetInCU: 0x5642, offset: 0x5642, size: 0x8, addend: 0x0, symName: __ZL95__struct_compiled_op_m9da7736e4694b93c7c971006326e43c5ba03ab9abc5f545cb623dfde18416b6e_executorPN12_GLOBAL__N_186__struct_compiled_op_m9da7736e4694b93c7c971006326e43c5ba03ab9abc5f545cb623dfde18416b6eE.cold.6, symObjAddr: 0x1B0C, symBinAddr: 0x353C, symSize: 0x28 }
  - { offsetInCU: 0x566F, offset: 0x566F, size: 0x8, addend: 0x0, symName: __ZL95__struct_compiled_op_m9da7736e4694b93c7c971006326e43c5ba03ab9abc5f545cb623dfde18416b6e_executorPN12_GLOBAL__N_186__struct_compiled_op_m9da7736e4694b93c7c971006326e43c5ba03ab9abc5f545cb623dfde18416b6eE.cold.9, symObjAddr: 0x1B84, symBinAddr: 0x35B4, symSize: 0x28 }
  - { offsetInCU: 0x569C, offset: 0x569C, size: 0x8, addend: 0x0, symName: __ZL95__struct_compiled_op_m9da7736e4694b93c7c971006326e43c5ba03ab9abc5f545cb623dfde18416b6e_executorPN12_GLOBAL__N_186__struct_compiled_op_m9da7736e4694b93c7c971006326e43c5ba03ab9abc5f545cb623dfde18416b6eE.cold.10, symObjAddr: 0x1BAC, symBinAddr: 0x35DC, symSize: 0x28 }
  - { offsetInCU: 0x56C9, offset: 0x56C9, size: 0x8, addend: 0x0, symName: __ZL95__struct_compiled_op_m9da7736e4694b93c7c971006326e43c5ba03ab9abc5f545cb623dfde18416b6e_executorPN12_GLOBAL__N_186__struct_compiled_op_m9da7736e4694b93c7c971006326e43c5ba03ab9abc5f545cb623dfde18416b6eE.cold.11, symObjAddr: 0x1BD4, symBinAddr: 0x3604, symSize: 0x28 }
  - { offsetInCU: 0x57CA, offset: 0x57CA, size: 0x8, addend: 0x0, symName: __ZL97__struct_compiled_op_m9da7736e4694b93c7c971006326e43c5ba03ab9abc5f545cb623dfde18416b6e_destructorP7_object, symObjAddr: 0x18EC, symBinAddr: 0x331C, symSize: 0x108 }
...
