---
triple:          'arm64-apple-darwin'
binary-path:     '/Users/paulosoares/personal/phd/code/tomcat-coordination/.pytensor_compiles/compiledir_2024.10.16--21.29.11_0/tmp5xl4yywo/m30b16eabf1f3324340ce605461b84190397c5e44184f25dee349c5e69fbe46ee.so'
relocations:
  - { offsetInCU: 0x26, offset: 0x26, size: 0x8, addend: 0x0, symName: _PyInit_m30b16eabf1f3324340ce605461b84190397c5e44184f25dee349c5e69fbe46ee, symObjAddr: 0x0, symBinAddr: 0x4200, symSize: 0x224 }
  - { offsetInCU: 0x53, offset: 0x53, size: 0x8, addend: 0x0, symName: __ZL11PyArray_API, symObjAddr: 0x2CD98, symBinAddr: 0xC140, symSize: 0x0 }
  - { offsetInCU: 0x73, offset: 0x73, size: 0x8, addend: 0x0, symName: __ZL9moduledef, symObjAddr: 0x3BC8, symBinAddr: 0xC098, symSize: 0x0 }
  - { offsetInCU: 0xC86, offset: 0xC86, size: 0x8, addend: 0x0, symName: __ZL9MyMethods, symObjAddr: 0x3C30, symBinAddr: 0xC100, symSize: 0x0 }
  - { offsetInCU: 0x20BF, offset: 0x20BF, size: 0x8, addend: 0x0, symName: __ZNSt3__111__sift_downB8un170006INS_17_ClassicAlgPolicyERNS_6__lessIvvEENS_16reverse_iteratorINS_11__wrap_iterIPNS_4pairIiiEEEEEEEEvT1_OT0_NS_15iterator_traitsISC_E15difference_typeESC_, symObjAddr: 0x1DF0, symBinAddr: 0x5FF0, symSize: 0x130 }
  - { offsetInCU: 0x23D3, offset: 0x23D3, size: 0x8, addend: 0x0, symName: __ZNSt3__111__introsortINS_17_ClassicAlgPolicyERNS_6__lessIvvEENS_16reverse_iteratorINS_11__wrap_iterIPNS_4pairIiiEEEEEELb0EEEvT1_SC_T0_NS_15iterator_traitsISC_E15difference_typeEb, symObjAddr: 0x207C, symBinAddr: 0x627C, symSize: 0x760 }
  - { offsetInCU: 0x3667, offset: 0x3667, size: 0x8, addend: 0x0, symName: __ZNSt3__131__partition_with_equals_on_leftB8un170006INS_17_ClassicAlgPolicyENS_16reverse_iteratorINS_11__wrap_iterIPNS_4pairIiiEEEEEERNS_6__lessIvvEEEET0_SC_SC_T1_, symObjAddr: 0x2970, symBinAddr: 0x6B70, symSize: 0x18C }
  - { offsetInCU: 0x39E5, offset: 0x39E5, size: 0x8, addend: 0x0, symName: __ZNSt3__132__partition_with_equals_on_rightB8un170006INS_17_ClassicAlgPolicyENS_16reverse_iteratorINS_11__wrap_iterIPNS_4pairIiiEEEEEERNS_6__lessIvvEEEENS4_IT0_bEESC_SC_T1_, symObjAddr: 0x2AFC, symBinAddr: 0x6CFC, symSize: 0x150 }
  - { offsetInCU: 0x3DFB, offset: 0x3DFB, size: 0x8, addend: 0x0, symName: __ZNSt3__127__insertion_sort_incompleteB8un170006INS_17_ClassicAlgPolicyERNS_6__lessIvvEENS_16reverse_iteratorINS_11__wrap_iterIPNS_4pairIiiEEEEEEEEbT1_SC_T0_, symObjAddr: 0x2C4C, symBinAddr: 0x6E4C, symSize: 0x334 }
  - { offsetInCU: 0x5A5E, offset: 0x5A5E, size: 0x8, addend: 0x0, symName: __ZNSt3__119__partial_sort_implB8un170006INS_17_ClassicAlgPolicyERNS_6__lessIvvEENS_16reverse_iteratorINS_11__wrap_iterIPNS_4pairIiiEEEEEESB_EET1_SC_SC_T2_OT0_, symObjAddr: 0x1C84, symBinAddr: 0x5E84, symSize: 0x16C }
  - { offsetInCU: 0x5DB1, offset: 0x5DB1, size: 0x8, addend: 0x0, symName: __ZNSt3__110__pop_heapB8un170006INS_17_ClassicAlgPolicyENS_6__lessIvvEENS_16reverse_iteratorINS_11__wrap_iterIPNS_4pairIiiEEEEEEEEvT1_SB_RT0_NS_15iterator_traitsISB_E15difference_typeE, symObjAddr: 0x1F20, symBinAddr: 0x6120, symSize: 0x15C }
  - { offsetInCU: 0x664C, offset: 0x664C, size: 0x8, addend: 0x0, symName: __ZNSt3__17__sort3B8un170006INS_17_ClassicAlgPolicyERNS_6__lessIvvEENS_16reverse_iteratorINS_11__wrap_iterIPNS_4pairIiiEEEEEEEEjT1_SC_SC_T0_, symObjAddr: 0x27DC, symBinAddr: 0x69DC, symSize: 0x194 }
  - { offsetInCU: 0x66B6, offset: 0x66B6, size: 0x8, addend: 0x0, symName: __ZNSt3__17__sort3B8un170006INS_17_ClassicAlgPolicyERNS_6__lessIvvEENS_16reverse_iteratorINS_11__wrap_iterIPNS_4pairIiiEEEEEEEEjT1_SC_SC_T0_, symObjAddr: 0x27DC, symBinAddr: 0x69DC, symSize: 0x194 }
  - { offsetInCU: 0x66DC, offset: 0x66DC, size: 0x8, addend: 0x0, symName: __ZNSt3__17__sort3B8un170006INS_17_ClassicAlgPolicyERNS_6__lessIvvEENS_16reverse_iteratorINS_11__wrap_iterIPNS_4pairIiiEEEEEEEEjT1_SC_SC_T0_, symObjAddr: 0x27DC, symBinAddr: 0x69DC, symSize: 0x194 }
  - { offsetInCU: 0x6AFA, offset: 0x6AFA, size: 0x8, addend: 0x0, symName: __ZNSt3__17__sort5B8un170006INS_17_ClassicAlgPolicyERNS_6__lessIvvEENS_16reverse_iteratorINS_11__wrap_iterIPNS_4pairIiiEEEEEEEEvT1_SC_SC_SC_SC_T0_, symObjAddr: 0x2F80, symBinAddr: 0x7180, symSize: 0x21C }
  - { offsetInCU: 0x9ABC, offset: 0x9ABC, size: 0x8, addend: 0x0, symName: _PyInit_m30b16eabf1f3324340ce605461b84190397c5e44184f25dee349c5e69fbe46ee, symObjAddr: 0x0, symBinAddr: 0x4200, symSize: 0x224 }
  - { offsetInCU: 0x9DA1, offset: 0x9DA1, size: 0x8, addend: 0x0, symName: __ZL11instantiateP7_objectS0_, symObjAddr: 0x224, symBinAddr: 0x4424, symSize: 0x17C }
  - { offsetInCU: 0xA0C6, offset: 0xA0C6, size: 0x8, addend: 0x0, symName: __ZL95__struct_compiled_op_m30b16eabf1f3324340ce605461b84190397c5e44184f25dee349c5e69fbe46ee_executorPN12_GLOBAL__N_186__struct_compiled_op_m30b16eabf1f3324340ce605461b84190397c5e44184f25dee349c5e69fbe46eeE, symObjAddr: 0x3A0, symBinAddr: 0x45A0, symSize: 0x17DC }
  - { offsetInCU: 0xA13B, offset: 0xA13B, size: 0x8, addend: 0x0, symName: __ZL11instantiateP7_objectS0_.cold.1, symObjAddr: 0x319C, symBinAddr: 0x739C, symSize: 0x28 }
  - { offsetInCU: 0xA153, offset: 0xA153, size: 0x8, addend: 0x0, symName: __ZL11instantiateP7_objectS0_.cold.2, symObjAddr: 0x31C4, symBinAddr: 0x73C4, symSize: 0x28 }
  - { offsetInCU: 0xA86B, offset: 0xA86B, size: 0x8, addend: 0x0, symName: __ZL95__struct_compiled_op_m30b16eabf1f3324340ce605461b84190397c5e44184f25dee349c5e69fbe46ee_executorPN12_GLOBAL__N_186__struct_compiled_op_m30b16eabf1f3324340ce605461b84190397c5e44184f25dee349c5e69fbe46eeE, symObjAddr: 0x3A0, symBinAddr: 0x45A0, symSize: 0x17DC }
  - { offsetInCU: 0xBBB7, offset: 0xBBB7, size: 0x8, addend: 0x0, symName: __ZL97__struct_compiled_op_m30b16eabf1f3324340ce605461b84190397c5e44184f25dee349c5e69fbe46ee_destructorP7_object, symObjAddr: 0x1B7C, symBinAddr: 0x5D7C, symSize: 0x108 }
  - { offsetInCU: 0xBBE3, offset: 0xBBE3, size: 0x8, addend: 0x0, symName: __ZL95__struct_compiled_op_m30b16eabf1f3324340ce605461b84190397c5e44184f25dee349c5e69fbe46ee_executorPN12_GLOBAL__N_186__struct_compiled_op_m30b16eabf1f3324340ce605461b84190397c5e44184f25dee349c5e69fbe46eeE.cold.1, symObjAddr: 0x31EC, symBinAddr: 0x73EC, symSize: 0x28 }
  - { offsetInCU: 0xBC11, offset: 0xBC11, size: 0x8, addend: 0x0, symName: __ZL95__struct_compiled_op_m30b16eabf1f3324340ce605461b84190397c5e44184f25dee349c5e69fbe46ee_executorPN12_GLOBAL__N_186__struct_compiled_op_m30b16eabf1f3324340ce605461b84190397c5e44184f25dee349c5e69fbe46eeE.cold.5, symObjAddr: 0x328C, symBinAddr: 0x748C, symSize: 0x28 }
  - { offsetInCU: 0xBC3F, offset: 0xBC3F, size: 0x8, addend: 0x0, symName: __ZL95__struct_compiled_op_m30b16eabf1f3324340ce605461b84190397c5e44184f25dee349c5e69fbe46ee_executorPN12_GLOBAL__N_186__struct_compiled_op_m30b16eabf1f3324340ce605461b84190397c5e44184f25dee349c5e69fbe46eeE.cold.7, symObjAddr: 0x32DC, symBinAddr: 0x74DC, symSize: 0x28 }
  - { offsetInCU: 0xBC84, offset: 0xBC84, size: 0x8, addend: 0x0, symName: __ZL95__struct_compiled_op_m30b16eabf1f3324340ce605461b84190397c5e44184f25dee349c5e69fbe46ee_executorPN12_GLOBAL__N_186__struct_compiled_op_m30b16eabf1f3324340ce605461b84190397c5e44184f25dee349c5e69fbe46eeE.cold.2, symObjAddr: 0x3214, symBinAddr: 0x7414, symSize: 0x28 }
  - { offsetInCU: 0xBCB2, offset: 0xBCB2, size: 0x8, addend: 0x0, symName: __ZL95__struct_compiled_op_m30b16eabf1f3324340ce605461b84190397c5e44184f25dee349c5e69fbe46ee_executorPN12_GLOBAL__N_186__struct_compiled_op_m30b16eabf1f3324340ce605461b84190397c5e44184f25dee349c5e69fbe46eeE.cold.3, symObjAddr: 0x323C, symBinAddr: 0x743C, symSize: 0x28 }
  - { offsetInCU: 0xBCE0, offset: 0xBCE0, size: 0x8, addend: 0x0, symName: __ZL95__struct_compiled_op_m30b16eabf1f3324340ce605461b84190397c5e44184f25dee349c5e69fbe46ee_executorPN12_GLOBAL__N_186__struct_compiled_op_m30b16eabf1f3324340ce605461b84190397c5e44184f25dee349c5e69fbe46eeE.cold.4, symObjAddr: 0x3264, symBinAddr: 0x7464, symSize: 0x28 }
  - { offsetInCU: 0xBD0E, offset: 0xBD0E, size: 0x8, addend: 0x0, symName: __ZL95__struct_compiled_op_m30b16eabf1f3324340ce605461b84190397c5e44184f25dee349c5e69fbe46ee_executorPN12_GLOBAL__N_186__struct_compiled_op_m30b16eabf1f3324340ce605461b84190397c5e44184f25dee349c5e69fbe46eeE.cold.6, symObjAddr: 0x32B4, symBinAddr: 0x74B4, symSize: 0x28 }
  - { offsetInCU: 0xBD3C, offset: 0xBD3C, size: 0x8, addend: 0x0, symName: __ZL95__struct_compiled_op_m30b16eabf1f3324340ce605461b84190397c5e44184f25dee349c5e69fbe46ee_executorPN12_GLOBAL__N_186__struct_compiled_op_m30b16eabf1f3324340ce605461b84190397c5e44184f25dee349c5e69fbe46eeE.cold.8, symObjAddr: 0x3304, symBinAddr: 0x7504, symSize: 0x28 }
  - { offsetInCU: 0xBD6A, offset: 0xBD6A, size: 0x8, addend: 0x0, symName: __ZL95__struct_compiled_op_m30b16eabf1f3324340ce605461b84190397c5e44184f25dee349c5e69fbe46ee_executorPN12_GLOBAL__N_186__struct_compiled_op_m30b16eabf1f3324340ce605461b84190397c5e44184f25dee349c5e69fbe46eeE.cold.9, symObjAddr: 0x332C, symBinAddr: 0x752C, symSize: 0x28 }
  - { offsetInCU: 0xBDA9, offset: 0xBDA9, size: 0x8, addend: 0x0, symName: __ZL95__struct_compiled_op_m30b16eabf1f3324340ce605461b84190397c5e44184f25dee349c5e69fbe46ee_executorPN12_GLOBAL__N_186__struct_compiled_op_m30b16eabf1f3324340ce605461b84190397c5e44184f25dee349c5e69fbe46eeE.cold.10, symObjAddr: 0x3354, symBinAddr: 0x7554, symSize: 0x28 }
  - { offsetInCU: 0xBDD7, offset: 0xBDD7, size: 0x8, addend: 0x0, symName: __ZL95__struct_compiled_op_m30b16eabf1f3324340ce605461b84190397c5e44184f25dee349c5e69fbe46ee_executorPN12_GLOBAL__N_186__struct_compiled_op_m30b16eabf1f3324340ce605461b84190397c5e44184f25dee349c5e69fbe46eeE.cold.11, symObjAddr: 0x337C, symBinAddr: 0x757C, symSize: 0x28 }
  - { offsetInCU: 0xBEE7, offset: 0xBEE7, size: 0x8, addend: 0x0, symName: __ZL97__struct_compiled_op_m30b16eabf1f3324340ce605461b84190397c5e44184f25dee349c5e69fbe46ee_destructorP7_object, symObjAddr: 0x1B7C, symBinAddr: 0x5D7C, symSize: 0x108 }
...
