---
triple:          'arm64-apple-darwin'
binary-path:     '/Users/paulosoares/personal/phd/code/tomcat-coordination/.pytensor_compiles/compiledir_2024.10.16--21.28.53_1/tmplws27xhc/m94188ccd8eb6ac54c1a503f8a7a78f757b01b32f0405fcc842addd4dea681ac8.so'
relocations:
  - { offsetInCU: 0x26, offset: 0x26, size: 0x8, addend: 0x0, symName: _PyInit_m94188ccd8eb6ac54c1a503f8a7a78f757b01b32f0405fcc842addd4dea681ac8, symObjAddr: 0x0, symBinAddr: 0xDE4, symSize: 0x224 }
  - { offsetInCU: 0x53, offset: 0x53, size: 0x8, addend: 0x0, symName: __ZL11PyArray_API, symObjAddr: 0x28E90, symBinAddr: 0x8140, symSize: 0x0 }
  - { offsetInCU: 0x73, offset: 0x73, size: 0x8, addend: 0x0, symName: __ZL9moduledef, symObjAddr: 0x2FE8, symBinAddr: 0x8098, symSize: 0x0 }
  - { offsetInCU: 0xC86, offset: 0xC86, size: 0x8, addend: 0x0, symName: __ZL9MyMethods, symObjAddr: 0x3050, symBinAddr: 0x8100, symSize: 0x0 }
  - { offsetInCU: 0x20BF, offset: 0x20BF, size: 0x8, addend: 0x0, symName: __ZNSt3__111__sift_downB8un170006INS_17_ClassicAlgPolicyERNS_6__lessIvvEENS_16reverse_iteratorINS_11__wrap_iterIPNS_4pairIiiEEEEEEEEvT1_OT0_NS_15iterator_traitsISC_E15difference_typeESC_, symObjAddr: 0x1488, symBinAddr: 0x226C, symSize: 0x130 }
  - { offsetInCU: 0x23D3, offset: 0x23D3, size: 0x8, addend: 0x0, symName: __ZNSt3__111__introsortINS_17_ClassicAlgPolicyERNS_6__lessIvvEENS_16reverse_iteratorINS_11__wrap_iterIPNS_4pairIiiEEEEEELb0EEEvT1_SC_T0_NS_15iterator_traitsISC_E15difference_typeEb, symObjAddr: 0x1714, symBinAddr: 0x24F8, symSize: 0x760 }
  - { offsetInCU: 0x3667, offset: 0x3667, size: 0x8, addend: 0x0, symName: __ZNSt3__131__partition_with_equals_on_leftB8un170006INS_17_ClassicAlgPolicyENS_16reverse_iteratorINS_11__wrap_iterIPNS_4pairIiiEEEEEERNS_6__lessIvvEEEET0_SC_SC_T1_, symObjAddr: 0x2008, symBinAddr: 0x2DEC, symSize: 0x18C }
  - { offsetInCU: 0x39E5, offset: 0x39E5, size: 0x8, addend: 0x0, symName: __ZNSt3__132__partition_with_equals_on_rightB8un170006INS_17_ClassicAlgPolicyENS_16reverse_iteratorINS_11__wrap_iterIPNS_4pairIiiEEEEEERNS_6__lessIvvEEEENS4_IT0_bEESC_SC_T1_, symObjAddr: 0x2194, symBinAddr: 0x2F78, symSize: 0x150 }
  - { offsetInCU: 0x3DFB, offset: 0x3DFB, size: 0x8, addend: 0x0, symName: __ZNSt3__127__insertion_sort_incompleteB8un170006INS_17_ClassicAlgPolicyERNS_6__lessIvvEENS_16reverse_iteratorINS_11__wrap_iterIPNS_4pairIiiEEEEEEEEbT1_SC_T0_, symObjAddr: 0x22E4, symBinAddr: 0x30C8, symSize: 0x334 }
  - { offsetInCU: 0x5A5E, offset: 0x5A5E, size: 0x8, addend: 0x0, symName: __ZNSt3__119__partial_sort_implB8un170006INS_17_ClassicAlgPolicyERNS_6__lessIvvEENS_16reverse_iteratorINS_11__wrap_iterIPNS_4pairIiiEEEEEESB_EET1_SC_SC_T2_OT0_, symObjAddr: 0x131C, symBinAddr: 0x2100, symSize: 0x16C }
  - { offsetInCU: 0x5DB1, offset: 0x5DB1, size: 0x8, addend: 0x0, symName: __ZNSt3__110__pop_heapB8un170006INS_17_ClassicAlgPolicyENS_6__lessIvvEENS_16reverse_iteratorINS_11__wrap_iterIPNS_4pairIiiEEEEEEEEvT1_SB_RT0_NS_15iterator_traitsISB_E15difference_typeE, symObjAddr: 0x15B8, symBinAddr: 0x239C, symSize: 0x15C }
  - { offsetInCU: 0x664C, offset: 0x664C, size: 0x8, addend: 0x0, symName: __ZNSt3__17__sort3B8un170006INS_17_ClassicAlgPolicyERNS_6__lessIvvEENS_16reverse_iteratorINS_11__wrap_iterIPNS_4pairIiiEEEEEEEEjT1_SC_SC_T0_, symObjAddr: 0x1E74, symBinAddr: 0x2C58, symSize: 0x194 }
  - { offsetInCU: 0x66B6, offset: 0x66B6, size: 0x8, addend: 0x0, symName: __ZNSt3__17__sort3B8un170006INS_17_ClassicAlgPolicyERNS_6__lessIvvEENS_16reverse_iteratorINS_11__wrap_iterIPNS_4pairIiiEEEEEEEEjT1_SC_SC_T0_, symObjAddr: 0x1E74, symBinAddr: 0x2C58, symSize: 0x194 }
  - { offsetInCU: 0x66DC, offset: 0x66DC, size: 0x8, addend: 0x0, symName: __ZNSt3__17__sort3B8un170006INS_17_ClassicAlgPolicyERNS_6__lessIvvEENS_16reverse_iteratorINS_11__wrap_iterIPNS_4pairIiiEEEEEEEEjT1_SC_SC_T0_, symObjAddr: 0x1E74, symBinAddr: 0x2C58, symSize: 0x194 }
  - { offsetInCU: 0x6AFA, offset: 0x6AFA, size: 0x8, addend: 0x0, symName: __ZNSt3__17__sort5B8un170006INS_17_ClassicAlgPolicyERNS_6__lessIvvEENS_16reverse_iteratorINS_11__wrap_iterIPNS_4pairIiiEEEEEEEEvT1_SC_SC_SC_SC_T0_, symObjAddr: 0x2618, symBinAddr: 0x33FC, symSize: 0x21C }
  - { offsetInCU: 0x9A95, offset: 0x9A95, size: 0x8, addend: 0x0, symName: _PyInit_m94188ccd8eb6ac54c1a503f8a7a78f757b01b32f0405fcc842addd4dea681ac8, symObjAddr: 0x0, symBinAddr: 0xDE4, symSize: 0x224 }
  - { offsetInCU: 0x9D10, offset: 0x9D10, size: 0x8, addend: 0x0, symName: __ZL11instantiateP7_objectS0_, symObjAddr: 0x224, symBinAddr: 0x1008, symSize: 0x110 }
  - { offsetInCU: 0x9EC2, offset: 0x9EC2, size: 0x8, addend: 0x0, symName: __ZL95__struct_compiled_op_m94188ccd8eb6ac54c1a503f8a7a78f757b01b32f0405fcc842addd4dea681ac8_executorPN12_GLOBAL__N_186__struct_compiled_op_m94188ccd8eb6ac54c1a503f8a7a78f757b01b32f0405fcc842addd4dea681ac8E, symObjAddr: 0x334, symBinAddr: 0x1118, symSize: 0xF6C }
  - { offsetInCU: 0x9F37, offset: 0x9F37, size: 0x8, addend: 0x0, symName: __ZL11instantiateP7_objectS0_.cold.1, symObjAddr: 0x2834, symBinAddr: 0x3618, symSize: 0x28 }
  - { offsetInCU: 0x9F4F, offset: 0x9F4F, size: 0x8, addend: 0x0, symName: __ZL11instantiateP7_objectS0_.cold.2, symObjAddr: 0x285C, symBinAddr: 0x3640, symSize: 0x28 }
  - { offsetInCU: 0xA45A, offset: 0xA45A, size: 0x8, addend: 0x0, symName: __ZL95__struct_compiled_op_m94188ccd8eb6ac54c1a503f8a7a78f757b01b32f0405fcc842addd4dea681ac8_executorPN12_GLOBAL__N_186__struct_compiled_op_m94188ccd8eb6ac54c1a503f8a7a78f757b01b32f0405fcc842addd4dea681ac8E, symObjAddr: 0x334, symBinAddr: 0x1118, symSize: 0xF6C }
  - { offsetInCU: 0xB011, offset: 0xB011, size: 0x8, addend: 0x0, symName: __ZL95__struct_compiled_op_m94188ccd8eb6ac54c1a503f8a7a78f757b01b32f0405fcc842addd4dea681ac8_executorPN12_GLOBAL__N_186__struct_compiled_op_m94188ccd8eb6ac54c1a503f8a7a78f757b01b32f0405fcc842addd4dea681ac8E.cold.2, symObjAddr: 0x28AC, symBinAddr: 0x3690, symSize: 0x28 }
  - { offsetInCU: 0xB050, offset: 0xB050, size: 0x8, addend: 0x0, symName: __ZL95__struct_compiled_op_m94188ccd8eb6ac54c1a503f8a7a78f757b01b32f0405fcc842addd4dea681ac8_executorPN12_GLOBAL__N_186__struct_compiled_op_m94188ccd8eb6ac54c1a503f8a7a78f757b01b32f0405fcc842addd4dea681ac8E.cold.1, symObjAddr: 0x2884, symBinAddr: 0x3668, symSize: 0x28 }
  - { offsetInCU: 0xB07E, offset: 0xB07E, size: 0x8, addend: 0x0, symName: __ZL95__struct_compiled_op_m94188ccd8eb6ac54c1a503f8a7a78f757b01b32f0405fcc842addd4dea681ac8_executorPN12_GLOBAL__N_186__struct_compiled_op_m94188ccd8eb6ac54c1a503f8a7a78f757b01b32f0405fcc842addd4dea681ac8E.cold.3, symObjAddr: 0x28D4, symBinAddr: 0x36B8, symSize: 0x28 }
  - { offsetInCU: 0xB0AC, offset: 0xB0AC, size: 0x8, addend: 0x0, symName: __ZL95__struct_compiled_op_m94188ccd8eb6ac54c1a503f8a7a78f757b01b32f0405fcc842addd4dea681ac8_executorPN12_GLOBAL__N_186__struct_compiled_op_m94188ccd8eb6ac54c1a503f8a7a78f757b01b32f0405fcc842addd4dea681ac8E.cold.4, symObjAddr: 0x28FC, symBinAddr: 0x36E0, symSize: 0x28 }
  - { offsetInCU: 0xB0DA, offset: 0xB0DA, size: 0x8, addend: 0x0, symName: __ZL95__struct_compiled_op_m94188ccd8eb6ac54c1a503f8a7a78f757b01b32f0405fcc842addd4dea681ac8_executorPN12_GLOBAL__N_186__struct_compiled_op_m94188ccd8eb6ac54c1a503f8a7a78f757b01b32f0405fcc842addd4dea681ac8E.cold.5, symObjAddr: 0x2924, symBinAddr: 0x3708, symSize: 0x28 }
  - { offsetInCU: 0xB108, offset: 0xB108, size: 0x8, addend: 0x0, symName: __ZL95__struct_compiled_op_m94188ccd8eb6ac54c1a503f8a7a78f757b01b32f0405fcc842addd4dea681ac8_executorPN12_GLOBAL__N_186__struct_compiled_op_m94188ccd8eb6ac54c1a503f8a7a78f757b01b32f0405fcc842addd4dea681ac8E.cold.6, symObjAddr: 0x294C, symBinAddr: 0x3730, symSize: 0x28 }
  - { offsetInCU: 0xB1B9, offset: 0xB1B9, size: 0x8, addend: 0x0, symName: __ZL97__struct_compiled_op_m94188ccd8eb6ac54c1a503f8a7a78f757b01b32f0405fcc842addd4dea681ac8_destructorP7_object, symObjAddr: 0x12A0, symBinAddr: 0x2084, symSize: 0x7C }
...
