---
triple:          'arm64-apple-darwin'
binary-path:     '/Users/paulosoares/personal/phd/code/tomcat-coordination/.pytensor_compiles/compiledir_2024.10.16--21.28.53_0/tmpfy8qjpes/m158937ba65a097497b84a2324371ae53dfd7c158755888832b5ed5e7530f673a.so'
relocations:
  - { offsetInCU: 0x26, offset: 0x26, size: 0x8, addend: 0x0, symName: _PyInit_m158937ba65a097497b84a2324371ae53dfd7c158755888832b5ed5e7530f673a, symObjAddr: 0x0, symBinAddr: 0x3FB8, symSize: 0x224 }
  - { offsetInCU: 0x53, offset: 0x53, size: 0x8, addend: 0x0, symName: __ZL11PyArray_API, symObjAddr: 0x2DC38, symBinAddr: 0xC140, symSize: 0x0 }
  - { offsetInCU: 0x73, offset: 0x73, size: 0x8, addend: 0x0, symName: __ZL9moduledef, symObjAddr: 0x3E10, symBinAddr: 0xC098, symSize: 0x0 }
  - { offsetInCU: 0xC86, offset: 0xC86, size: 0x8, addend: 0x0, symName: __ZL9MyMethods, symObjAddr: 0x3E78, symBinAddr: 0xC100, symSize: 0x0 }
  - { offsetInCU: 0x20BF, offset: 0x20BF, size: 0x8, addend: 0x0, symName: __ZNSt3__111__sift_downB8un170006INS_17_ClassicAlgPolicyERNS_6__lessIvvEENS_16reverse_iteratorINS_11__wrap_iterIPNS_4pairIiiEEEEEEEEvT1_OT0_NS_15iterator_traitsISC_E15difference_typeESC_, symObjAddr: 0x2220, symBinAddr: 0x61D8, symSize: 0x130 }
  - { offsetInCU: 0x23D3, offset: 0x23D3, size: 0x8, addend: 0x0, symName: __ZNSt3__111__introsortINS_17_ClassicAlgPolicyERNS_6__lessIvvEENS_16reverse_iteratorINS_11__wrap_iterIPNS_4pairIiiEEEEEELb0EEEvT1_SC_T0_NS_15iterator_traitsISC_E15difference_typeEb, symObjAddr: 0x24AC, symBinAddr: 0x6464, symSize: 0x760 }
  - { offsetInCU: 0x3667, offset: 0x3667, size: 0x8, addend: 0x0, symName: __ZNSt3__131__partition_with_equals_on_leftB8un170006INS_17_ClassicAlgPolicyENS_16reverse_iteratorINS_11__wrap_iterIPNS_4pairIiiEEEEEERNS_6__lessIvvEEEET0_SC_SC_T1_, symObjAddr: 0x2DA0, symBinAddr: 0x6D58, symSize: 0x18C }
  - { offsetInCU: 0x39E5, offset: 0x39E5, size: 0x8, addend: 0x0, symName: __ZNSt3__132__partition_with_equals_on_rightB8un170006INS_17_ClassicAlgPolicyENS_16reverse_iteratorINS_11__wrap_iterIPNS_4pairIiiEEEEEERNS_6__lessIvvEEEENS4_IT0_bEESC_SC_T1_, symObjAddr: 0x2F2C, symBinAddr: 0x6EE4, symSize: 0x150 }
  - { offsetInCU: 0x3DFB, offset: 0x3DFB, size: 0x8, addend: 0x0, symName: __ZNSt3__127__insertion_sort_incompleteB8un170006INS_17_ClassicAlgPolicyERNS_6__lessIvvEENS_16reverse_iteratorINS_11__wrap_iterIPNS_4pairIiiEEEEEEEEbT1_SC_T0_, symObjAddr: 0x307C, symBinAddr: 0x7034, symSize: 0x334 }
  - { offsetInCU: 0x5A5E, offset: 0x5A5E, size: 0x8, addend: 0x0, symName: __ZNSt3__119__partial_sort_implB8un170006INS_17_ClassicAlgPolicyERNS_6__lessIvvEENS_16reverse_iteratorINS_11__wrap_iterIPNS_4pairIiiEEEEEESB_EET1_SC_SC_T2_OT0_, symObjAddr: 0x20B4, symBinAddr: 0x606C, symSize: 0x16C }
  - { offsetInCU: 0x5DB1, offset: 0x5DB1, size: 0x8, addend: 0x0, symName: __ZNSt3__110__pop_heapB8un170006INS_17_ClassicAlgPolicyENS_6__lessIvvEENS_16reverse_iteratorINS_11__wrap_iterIPNS_4pairIiiEEEEEEEEvT1_SB_RT0_NS_15iterator_traitsISB_E15difference_typeE, symObjAddr: 0x2350, symBinAddr: 0x6308, symSize: 0x15C }
  - { offsetInCU: 0x664C, offset: 0x664C, size: 0x8, addend: 0x0, symName: __ZNSt3__17__sort3B8un170006INS_17_ClassicAlgPolicyERNS_6__lessIvvEENS_16reverse_iteratorINS_11__wrap_iterIPNS_4pairIiiEEEEEEEEjT1_SC_SC_T0_, symObjAddr: 0x2C0C, symBinAddr: 0x6BC4, symSize: 0x194 }
  - { offsetInCU: 0x66B6, offset: 0x66B6, size: 0x8, addend: 0x0, symName: __ZNSt3__17__sort3B8un170006INS_17_ClassicAlgPolicyERNS_6__lessIvvEENS_16reverse_iteratorINS_11__wrap_iterIPNS_4pairIiiEEEEEEEEjT1_SC_SC_T0_, symObjAddr: 0x2C0C, symBinAddr: 0x6BC4, symSize: 0x194 }
  - { offsetInCU: 0x66DC, offset: 0x66DC, size: 0x8, addend: 0x0, symName: __ZNSt3__17__sort3B8un170006INS_17_ClassicAlgPolicyERNS_6__lessIvvEENS_16reverse_iteratorINS_11__wrap_iterIPNS_4pairIiiEEEEEEEEjT1_SC_SC_T0_, symObjAddr: 0x2C0C, symBinAddr: 0x6BC4, symSize: 0x194 }
  - { offsetInCU: 0x6AFA, offset: 0x6AFA, size: 0x8, addend: 0x0, symName: __ZNSt3__17__sort5B8un170006INS_17_ClassicAlgPolicyERNS_6__lessIvvEENS_16reverse_iteratorINS_11__wrap_iterIPNS_4pairIiiEEEEEEEEvT1_SC_SC_SC_SC_T0_, symObjAddr: 0x33B0, symBinAddr: 0x7368, symSize: 0x21C }
  - { offsetInCU: 0x9AEB, offset: 0x9AEB, size: 0x8, addend: 0x0, symName: _PyInit_m158937ba65a097497b84a2324371ae53dfd7c158755888832b5ed5e7530f673a, symObjAddr: 0x0, symBinAddr: 0x3FB8, symSize: 0x224 }
  - { offsetInCU: 0x9D91, offset: 0x9D91, size: 0x8, addend: 0x0, symName: __ZL11instantiateP7_objectS0_, symObjAddr: 0x224, symBinAddr: 0x41DC, symSize: 0x160 }
  - { offsetInCU: 0xA03D, offset: 0xA03D, size: 0x8, addend: 0x0, symName: __ZL95__struct_compiled_op_m158937ba65a097497b84a2324371ae53dfd7c158755888832b5ed5e7530f673a_executorPN12_GLOBAL__N_186__struct_compiled_op_m158937ba65a097497b84a2324371ae53dfd7c158755888832b5ed5e7530f673aE, symObjAddr: 0x384, symBinAddr: 0x433C, symSize: 0x1C44 }
  - { offsetInCU: 0xA0B2, offset: 0xA0B2, size: 0x8, addend: 0x0, symName: __ZL11instantiateP7_objectS0_.cold.1, symObjAddr: 0x35CC, symBinAddr: 0x7584, symSize: 0x28 }
  - { offsetInCU: 0xA0CA, offset: 0xA0CA, size: 0x8, addend: 0x0, symName: __ZL11instantiateP7_objectS0_.cold.2, symObjAddr: 0x35F4, symBinAddr: 0x75AC, symSize: 0x28 }
  - { offsetInCU: 0xA945, offset: 0xA945, size: 0x8, addend: 0x0, symName: __ZL95__struct_compiled_op_m158937ba65a097497b84a2324371ae53dfd7c158755888832b5ed5e7530f673a_executorPN12_GLOBAL__N_186__struct_compiled_op_m158937ba65a097497b84a2324371ae53dfd7c158755888832b5ed5e7530f673aE, symObjAddr: 0x384, symBinAddr: 0x433C, symSize: 0x1C44 }
  - { offsetInCU: 0xBC2A, offset: 0xBC2A, size: 0x8, addend: 0x0, symName: __ZL95__struct_compiled_op_m158937ba65a097497b84a2324371ae53dfd7c158755888832b5ed5e7530f673a_executorPN12_GLOBAL__N_186__struct_compiled_op_m158937ba65a097497b84a2324371ae53dfd7c158755888832b5ed5e7530f673aE.cold.1, symObjAddr: 0x361C, symBinAddr: 0x75D4, symSize: 0x28 }
  - { offsetInCU: 0xBC58, offset: 0xBC58, size: 0x8, addend: 0x0, symName: __ZL95__struct_compiled_op_m158937ba65a097497b84a2324371ae53dfd7c158755888832b5ed5e7530f673a_executorPN12_GLOBAL__N_186__struct_compiled_op_m158937ba65a097497b84a2324371ae53dfd7c158755888832b5ed5e7530f673aE.cold.5, symObjAddr: 0x36BC, symBinAddr: 0x7674, symSize: 0x28 }
  - { offsetInCU: 0xBC86, offset: 0xBC86, size: 0x8, addend: 0x0, symName: __ZL95__struct_compiled_op_m158937ba65a097497b84a2324371ae53dfd7c158755888832b5ed5e7530f673a_executorPN12_GLOBAL__N_186__struct_compiled_op_m158937ba65a097497b84a2324371ae53dfd7c158755888832b5ed5e7530f673aE.cold.7, symObjAddr: 0x370C, symBinAddr: 0x76C4, symSize: 0x28 }
  - { offsetInCU: 0xBCCB, offset: 0xBCCB, size: 0x8, addend: 0x0, symName: __ZL95__struct_compiled_op_m158937ba65a097497b84a2324371ae53dfd7c158755888832b5ed5e7530f673a_executorPN12_GLOBAL__N_186__struct_compiled_op_m158937ba65a097497b84a2324371ae53dfd7c158755888832b5ed5e7530f673aE.cold.2, symObjAddr: 0x3644, symBinAddr: 0x75FC, symSize: 0x28 }
  - { offsetInCU: 0xBCF9, offset: 0xBCF9, size: 0x8, addend: 0x0, symName: __ZL95__struct_compiled_op_m158937ba65a097497b84a2324371ae53dfd7c158755888832b5ed5e7530f673a_executorPN12_GLOBAL__N_186__struct_compiled_op_m158937ba65a097497b84a2324371ae53dfd7c158755888832b5ed5e7530f673aE.cold.3, symObjAddr: 0x366C, symBinAddr: 0x7624, symSize: 0x28 }
  - { offsetInCU: 0xBD27, offset: 0xBD27, size: 0x8, addend: 0x0, symName: __ZL95__struct_compiled_op_m158937ba65a097497b84a2324371ae53dfd7c158755888832b5ed5e7530f673a_executorPN12_GLOBAL__N_186__struct_compiled_op_m158937ba65a097497b84a2324371ae53dfd7c158755888832b5ed5e7530f673aE.cold.4, symObjAddr: 0x3694, symBinAddr: 0x764C, symSize: 0x28 }
  - { offsetInCU: 0xBD55, offset: 0xBD55, size: 0x8, addend: 0x0, symName: __ZL95__struct_compiled_op_m158937ba65a097497b84a2324371ae53dfd7c158755888832b5ed5e7530f673a_executorPN12_GLOBAL__N_186__struct_compiled_op_m158937ba65a097497b84a2324371ae53dfd7c158755888832b5ed5e7530f673aE.cold.6, symObjAddr: 0x36E4, symBinAddr: 0x769C, symSize: 0x28 }
  - { offsetInCU: 0xBD83, offset: 0xBD83, size: 0x8, addend: 0x0, symName: __ZL95__struct_compiled_op_m158937ba65a097497b84a2324371ae53dfd7c158755888832b5ed5e7530f673a_executorPN12_GLOBAL__N_186__struct_compiled_op_m158937ba65a097497b84a2324371ae53dfd7c158755888832b5ed5e7530f673aE.cold.8, symObjAddr: 0x3734, symBinAddr: 0x76EC, symSize: 0x28 }
  - { offsetInCU: 0xBDB1, offset: 0xBDB1, size: 0x8, addend: 0x0, symName: __ZL95__struct_compiled_op_m158937ba65a097497b84a2324371ae53dfd7c158755888832b5ed5e7530f673a_executorPN12_GLOBAL__N_186__struct_compiled_op_m158937ba65a097497b84a2324371ae53dfd7c158755888832b5ed5e7530f673aE.cold.9, symObjAddr: 0x375C, symBinAddr: 0x7714, symSize: 0x28 }
  - { offsetInCU: 0xBDDF, offset: 0xBDDF, size: 0x8, addend: 0x0, symName: __ZL95__struct_compiled_op_m158937ba65a097497b84a2324371ae53dfd7c158755888832b5ed5e7530f673a_executorPN12_GLOBAL__N_186__struct_compiled_op_m158937ba65a097497b84a2324371ae53dfd7c158755888832b5ed5e7530f673aE.cold.10, symObjAddr: 0x3784, symBinAddr: 0x773C, symSize: 0x28 }
  - { offsetInCU: 0xBEED, offset: 0xBEED, size: 0x8, addend: 0x0, symName: __ZL97__struct_compiled_op_m158937ba65a097497b84a2324371ae53dfd7c158755888832b5ed5e7530f673a_destructorP7_object, symObjAddr: 0x1FC8, symBinAddr: 0x5F80, symSize: 0xEC }
...
