---
triple:          'arm64-apple-darwin'
binary-path:     '/Users/paulosoares/personal/phd/code/tomcat-coordination/.pytensor_compiles/compiledir_2024.10.16--21.29.11_1/tmpp_vzwg4g/mb343691c162b1640ceb44c94675b9cd34f99001b83bd83ad4f6d56e1a24e5bc5.so'
relocations:
  - { offsetInCU: 0x26, offset: 0x26, size: 0x8, addend: 0x0, symName: _PyInit_mb343691c162b1640ceb44c94675b9cd34f99001b83bd83ad4f6d56e1a24e5bc5, symObjAddr: 0x0, symBinAddr: 0x37F0, symSize: 0x224 }
  - { offsetInCU: 0x53, offset: 0x53, size: 0x8, addend: 0x0, symName: __ZL11PyArray_API, symObjAddr: 0x2FFB0, symBinAddr: 0xC140, symSize: 0x0 }
  - { offsetInCU: 0x73, offset: 0x73, size: 0x8, addend: 0x0, symName: __ZL9moduledef, symObjAddr: 0x45D8, symBinAddr: 0xC098, symSize: 0x0 }
  - { offsetInCU: 0xC86, offset: 0xC86, size: 0x8, addend: 0x0, symName: __ZL9MyMethods, symObjAddr: 0x4640, symBinAddr: 0xC100, symSize: 0x0 }
  - { offsetInCU: 0x20BF, offset: 0x20BF, size: 0x8, addend: 0x0, symName: __ZNSt3__111__sift_downB8un170006INS_17_ClassicAlgPolicyERNS_6__lessIvvEENS_16reverse_iteratorINS_11__wrap_iterIPNS_4pairIiiEEEEEEEEvT1_OT0_NS_15iterator_traitsISC_E15difference_typeESC_, symObjAddr: 0x277C, symBinAddr: 0x5F6C, symSize: 0x130 }
  - { offsetInCU: 0x23D3, offset: 0x23D3, size: 0x8, addend: 0x0, symName: __ZNSt3__111__introsortINS_17_ClassicAlgPolicyERNS_6__lessIvvEENS_16reverse_iteratorINS_11__wrap_iterIPNS_4pairIiiEEEEEELb0EEEvT1_SC_T0_NS_15iterator_traitsISC_E15difference_typeEb, symObjAddr: 0x2A08, symBinAddr: 0x61F8, symSize: 0x760 }
  - { offsetInCU: 0x3667, offset: 0x3667, size: 0x8, addend: 0x0, symName: __ZNSt3__131__partition_with_equals_on_leftB8un170006INS_17_ClassicAlgPolicyENS_16reverse_iteratorINS_11__wrap_iterIPNS_4pairIiiEEEEEERNS_6__lessIvvEEEET0_SC_SC_T1_, symObjAddr: 0x32FC, symBinAddr: 0x6AEC, symSize: 0x18C }
  - { offsetInCU: 0x39E5, offset: 0x39E5, size: 0x8, addend: 0x0, symName: __ZNSt3__132__partition_with_equals_on_rightB8un170006INS_17_ClassicAlgPolicyENS_16reverse_iteratorINS_11__wrap_iterIPNS_4pairIiiEEEEEERNS_6__lessIvvEEEENS4_IT0_bEESC_SC_T1_, symObjAddr: 0x3488, symBinAddr: 0x6C78, symSize: 0x150 }
  - { offsetInCU: 0x3DFB, offset: 0x3DFB, size: 0x8, addend: 0x0, symName: __ZNSt3__127__insertion_sort_incompleteB8un170006INS_17_ClassicAlgPolicyERNS_6__lessIvvEENS_16reverse_iteratorINS_11__wrap_iterIPNS_4pairIiiEEEEEEEEbT1_SC_T0_, symObjAddr: 0x35D8, symBinAddr: 0x6DC8, symSize: 0x334 }
  - { offsetInCU: 0x5A5E, offset: 0x5A5E, size: 0x8, addend: 0x0, symName: __ZNSt3__119__partial_sort_implB8un170006INS_17_ClassicAlgPolicyERNS_6__lessIvvEENS_16reverse_iteratorINS_11__wrap_iterIPNS_4pairIiiEEEEEESB_EET1_SC_SC_T2_OT0_, symObjAddr: 0x2610, symBinAddr: 0x5E00, symSize: 0x16C }
  - { offsetInCU: 0x5DB1, offset: 0x5DB1, size: 0x8, addend: 0x0, symName: __ZNSt3__110__pop_heapB8un170006INS_17_ClassicAlgPolicyENS_6__lessIvvEENS_16reverse_iteratorINS_11__wrap_iterIPNS_4pairIiiEEEEEEEEvT1_SB_RT0_NS_15iterator_traitsISB_E15difference_typeE, symObjAddr: 0x28AC, symBinAddr: 0x609C, symSize: 0x15C }
  - { offsetInCU: 0x664C, offset: 0x664C, size: 0x8, addend: 0x0, symName: __ZNSt3__17__sort3B8un170006INS_17_ClassicAlgPolicyERNS_6__lessIvvEENS_16reverse_iteratorINS_11__wrap_iterIPNS_4pairIiiEEEEEEEEjT1_SC_SC_T0_, symObjAddr: 0x3168, symBinAddr: 0x6958, symSize: 0x194 }
  - { offsetInCU: 0x66B6, offset: 0x66B6, size: 0x8, addend: 0x0, symName: __ZNSt3__17__sort3B8un170006INS_17_ClassicAlgPolicyERNS_6__lessIvvEENS_16reverse_iteratorINS_11__wrap_iterIPNS_4pairIiiEEEEEEEEjT1_SC_SC_T0_, symObjAddr: 0x3168, symBinAddr: 0x6958, symSize: 0x194 }
  - { offsetInCU: 0x66DC, offset: 0x66DC, size: 0x8, addend: 0x0, symName: __ZNSt3__17__sort3B8un170006INS_17_ClassicAlgPolicyERNS_6__lessIvvEENS_16reverse_iteratorINS_11__wrap_iterIPNS_4pairIiiEEEEEEEEjT1_SC_SC_T0_, symObjAddr: 0x3168, symBinAddr: 0x6958, symSize: 0x194 }
  - { offsetInCU: 0x6AFA, offset: 0x6AFA, size: 0x8, addend: 0x0, symName: __ZNSt3__17__sort5B8un170006INS_17_ClassicAlgPolicyERNS_6__lessIvvEENS_16reverse_iteratorINS_11__wrap_iterIPNS_4pairIiiEEEEEEEEvT1_SC_SC_SC_SC_T0_, symObjAddr: 0x390C, symBinAddr: 0x70FC, symSize: 0x21C }
  - { offsetInCU: 0x9B1D, offset: 0x9B1D, size: 0x8, addend: 0x0, symName: _PyInit_mb343691c162b1640ceb44c94675b9cd34f99001b83bd83ad4f6d56e1a24e5bc5, symObjAddr: 0x0, symBinAddr: 0x37F0, symSize: 0x224 }
  - { offsetInCU: 0x9E19, offset: 0x9E19, size: 0x8, addend: 0x0, symName: __ZL11instantiateP7_objectS0_, symObjAddr: 0x224, symBinAddr: 0x3A14, symSize: 0x1A8 }
  - { offsetInCU: 0xA1BE, offset: 0xA1BE, size: 0x8, addend: 0x0, symName: __ZL95__struct_compiled_op_mb343691c162b1640ceb44c94675b9cd34f99001b83bd83ad4f6d56e1a24e5bc5_executorPN12_GLOBAL__N_186__struct_compiled_op_mb343691c162b1640ceb44c94675b9cd34f99001b83bd83ad4f6d56e1a24e5bc5E, symObjAddr: 0x3CC, symBinAddr: 0x3BBC, symSize: 0x2104 }
  - { offsetInCU: 0xA233, offset: 0xA233, size: 0x8, addend: 0x0, symName: __ZL11instantiateP7_objectS0_.cold.1, symObjAddr: 0x3B28, symBinAddr: 0x7318, symSize: 0x28 }
  - { offsetInCU: 0xA24B, offset: 0xA24B, size: 0x8, addend: 0x0, symName: __ZL11instantiateP7_objectS0_.cold.2, symObjAddr: 0x3B50, symBinAddr: 0x7340, symSize: 0x28 }
  - { offsetInCU: 0xAB5D, offset: 0xAB5D, size: 0x8, addend: 0x0, symName: __ZL95__struct_compiled_op_mb343691c162b1640ceb44c94675b9cd34f99001b83bd83ad4f6d56e1a24e5bc5_executorPN12_GLOBAL__N_186__struct_compiled_op_mb343691c162b1640ceb44c94675b9cd34f99001b83bd83ad4f6d56e1a24e5bc5E, symObjAddr: 0x3CC, symBinAddr: 0x3BBC, symSize: 0x2104 }
  - { offsetInCU: 0xC365, offset: 0xC365, size: 0x8, addend: 0x0, symName: __ZL95__struct_compiled_op_mb343691c162b1640ceb44c94675b9cd34f99001b83bd83ad4f6d56e1a24e5bc5_executorPN12_GLOBAL__N_186__struct_compiled_op_mb343691c162b1640ceb44c94675b9cd34f99001b83bd83ad4f6d56e1a24e5bc5E.cold.1, symObjAddr: 0x3B78, symBinAddr: 0x7368, symSize: 0x28 }
  - { offsetInCU: 0xC393, offset: 0xC393, size: 0x8, addend: 0x0, symName: __ZL95__struct_compiled_op_mb343691c162b1640ceb44c94675b9cd34f99001b83bd83ad4f6d56e1a24e5bc5_executorPN12_GLOBAL__N_186__struct_compiled_op_mb343691c162b1640ceb44c94675b9cd34f99001b83bd83ad4f6d56e1a24e5bc5E.cold.5, symObjAddr: 0x3C18, symBinAddr: 0x7408, symSize: 0x28 }
  - { offsetInCU: 0xC3C1, offset: 0xC3C1, size: 0x8, addend: 0x0, symName: __ZL95__struct_compiled_op_mb343691c162b1640ceb44c94675b9cd34f99001b83bd83ad4f6d56e1a24e5bc5_executorPN12_GLOBAL__N_186__struct_compiled_op_mb343691c162b1640ceb44c94675b9cd34f99001b83bd83ad4f6d56e1a24e5bc5E.cold.7, symObjAddr: 0x3C68, symBinAddr: 0x7458, symSize: 0x28 }
  - { offsetInCU: 0xC3EF, offset: 0xC3EF, size: 0x8, addend: 0x0, symName: __ZL95__struct_compiled_op_mb343691c162b1640ceb44c94675b9cd34f99001b83bd83ad4f6d56e1a24e5bc5_executorPN12_GLOBAL__N_186__struct_compiled_op_mb343691c162b1640ceb44c94675b9cd34f99001b83bd83ad4f6d56e1a24e5bc5E.cold.8, symObjAddr: 0x3C90, symBinAddr: 0x7480, symSize: 0x28 }
  - { offsetInCU: 0xC41D, offset: 0xC41D, size: 0x8, addend: 0x0, symName: __ZL95__struct_compiled_op_mb343691c162b1640ceb44c94675b9cd34f99001b83bd83ad4f6d56e1a24e5bc5_executorPN12_GLOBAL__N_186__struct_compiled_op_mb343691c162b1640ceb44c94675b9cd34f99001b83bd83ad4f6d56e1a24e5bc5E.cold.9, symObjAddr: 0x3CB8, symBinAddr: 0x74A8, symSize: 0x28 }
  - { offsetInCU: 0xC44B, offset: 0xC44B, size: 0x8, addend: 0x0, symName: __ZL95__struct_compiled_op_mb343691c162b1640ceb44c94675b9cd34f99001b83bd83ad4f6d56e1a24e5bc5_executorPN12_GLOBAL__N_186__struct_compiled_op_mb343691c162b1640ceb44c94675b9cd34f99001b83bd83ad4f6d56e1a24e5bc5E.cold.10, symObjAddr: 0x3CE0, symBinAddr: 0x74D0, symSize: 0x28 }
  - { offsetInCU: 0xC490, offset: 0xC490, size: 0x8, addend: 0x0, symName: __ZL95__struct_compiled_op_mb343691c162b1640ceb44c94675b9cd34f99001b83bd83ad4f6d56e1a24e5bc5_executorPN12_GLOBAL__N_186__struct_compiled_op_mb343691c162b1640ceb44c94675b9cd34f99001b83bd83ad4f6d56e1a24e5bc5E.cold.2, symObjAddr: 0x3BA0, symBinAddr: 0x7390, symSize: 0x28 }
  - { offsetInCU: 0xC4BE, offset: 0xC4BE, size: 0x8, addend: 0x0, symName: __ZL95__struct_compiled_op_mb343691c162b1640ceb44c94675b9cd34f99001b83bd83ad4f6d56e1a24e5bc5_executorPN12_GLOBAL__N_186__struct_compiled_op_mb343691c162b1640ceb44c94675b9cd34f99001b83bd83ad4f6d56e1a24e5bc5E.cold.3, symObjAddr: 0x3BC8, symBinAddr: 0x73B8, symSize: 0x28 }
  - { offsetInCU: 0xC4EC, offset: 0xC4EC, size: 0x8, addend: 0x0, symName: __ZL95__struct_compiled_op_mb343691c162b1640ceb44c94675b9cd34f99001b83bd83ad4f6d56e1a24e5bc5_executorPN12_GLOBAL__N_186__struct_compiled_op_mb343691c162b1640ceb44c94675b9cd34f99001b83bd83ad4f6d56e1a24e5bc5E.cold.4, symObjAddr: 0x3BF0, symBinAddr: 0x73E0, symSize: 0x28 }
  - { offsetInCU: 0xC51A, offset: 0xC51A, size: 0x8, addend: 0x0, symName: __ZL95__struct_compiled_op_mb343691c162b1640ceb44c94675b9cd34f99001b83bd83ad4f6d56e1a24e5bc5_executorPN12_GLOBAL__N_186__struct_compiled_op_mb343691c162b1640ceb44c94675b9cd34f99001b83bd83ad4f6d56e1a24e5bc5E.cold.6, symObjAddr: 0x3C40, symBinAddr: 0x7430, symSize: 0x28 }
  - { offsetInCU: 0xC548, offset: 0xC548, size: 0x8, addend: 0x0, symName: __ZL95__struct_compiled_op_mb343691c162b1640ceb44c94675b9cd34f99001b83bd83ad4f6d56e1a24e5bc5_executorPN12_GLOBAL__N_186__struct_compiled_op_mb343691c162b1640ceb44c94675b9cd34f99001b83bd83ad4f6d56e1a24e5bc5E.cold.11, symObjAddr: 0x3D08, symBinAddr: 0x74F8, symSize: 0x28 }
  - { offsetInCU: 0xC576, offset: 0xC576, size: 0x8, addend: 0x0, symName: __ZL95__struct_compiled_op_mb343691c162b1640ceb44c94675b9cd34f99001b83bd83ad4f6d56e1a24e5bc5_executorPN12_GLOBAL__N_186__struct_compiled_op_mb343691c162b1640ceb44c94675b9cd34f99001b83bd83ad4f6d56e1a24e5bc5E.cold.12, symObjAddr: 0x3D30, symBinAddr: 0x7520, symSize: 0x28 }
  - { offsetInCU: 0xC5B5, offset: 0xC5B5, size: 0x8, addend: 0x0, symName: __ZL95__struct_compiled_op_mb343691c162b1640ceb44c94675b9cd34f99001b83bd83ad4f6d56e1a24e5bc5_executorPN12_GLOBAL__N_186__struct_compiled_op_mb343691c162b1640ceb44c94675b9cd34f99001b83bd83ad4f6d56e1a24e5bc5E.cold.13, symObjAddr: 0x3D58, symBinAddr: 0x7548, symSize: 0x28 }
  - { offsetInCU: 0xC6EB, offset: 0xC6EB, size: 0x8, addend: 0x0, symName: __ZL97__struct_compiled_op_mb343691c162b1640ceb44c94675b9cd34f99001b83bd83ad4f6d56e1a24e5bc5_destructorP7_object, symObjAddr: 0x24D0, symBinAddr: 0x5CC0, symSize: 0x140 }
...
