---
triple:          'arm64-apple-darwin'
binary-path:     '/Users/paulosoares/personal/phd/code/tomcat-coordination/.pytensor_compiles/compiledir_2024.10.16--21.28.53_0/tmp4a7mt4cm/m3e5cbc4f6d572e6d72a39e22906195d6d10d399319a80cbfc517383153be4572.so'
relocations:
  - { offsetInCU: 0x26, offset: 0x26, size: 0x8, addend: 0x0, symName: _PyInit_m3e5cbc4f6d572e6d72a39e22906195d6d10d399319a80cbfc517383153be4572, symObjAddr: 0x0, symBinAddr: 0x147C, symSize: 0x224 }
  - { offsetInCU: 0x53, offset: 0x53, size: 0x8, addend: 0x0, symName: __ZL11PyArray_API, symObjAddr: 0x146D0, symBinAddr: 0x8138, symSize: 0x0 }
  - { offsetInCU: 0x73, offset: 0x73, size: 0x8, addend: 0x0, symName: __ZL9moduledef, symObjAddr: 0x2968, symBinAddr: 0x8090, symSize: 0x0 }
  - { offsetInCU: 0xC86, offset: 0xC86, size: 0x8, addend: 0x0, symName: __ZL9MyMethods, symObjAddr: 0x29D0, symBinAddr: 0x80F8, symSize: 0x0 }
  - { offsetInCU: 0x3BF8, offset: 0x3BF8, size: 0x8, addend: 0x0, symName: _PyInit_m3e5cbc4f6d572e6d72a39e22906195d6d10d399319a80cbfc517383153be4572, symObjAddr: 0x0, symBinAddr: 0x147C, symSize: 0x224 }
  - { offsetInCU: 0x3EDD, offset: 0x3EDD, size: 0x8, addend: 0x0, symName: __ZL11instantiateP7_objectS0_, symObjAddr: 0x224, symBinAddr: 0x16A0, symSize: 0x1A8 }
  - { offsetInCU: 0x426A, offset: 0x426A, size: 0x8, addend: 0x0, symName: __ZL95__struct_compiled_op_m3e5cbc4f6d572e6d72a39e22906195d6d10d399319a80cbfc517383153be4572_executorPN12_GLOBAL__N_186__struct_compiled_op_m3e5cbc4f6d572e6d72a39e22906195d6d10d399319a80cbfc517383153be4572E, symObjAddr: 0x3CC, symBinAddr: 0x1848, symSize: 0x1A40 }
  - { offsetInCU: 0x42C8, offset: 0x42C8, size: 0x8, addend: 0x0, symName: __ZL11instantiateP7_objectS0_.cold.1, symObjAddr: 0x1F4C, symBinAddr: 0x33C8, symSize: 0x28 }
  - { offsetInCU: 0x42DF, offset: 0x42DF, size: 0x8, addend: 0x0, symName: __ZL11instantiateP7_objectS0_.cold.2, symObjAddr: 0x1F74, symBinAddr: 0x33F0, symSize: 0x28 }
  - { offsetInCU: 0x4717, offset: 0x4717, size: 0x8, addend: 0x0, symName: __ZL95__struct_compiled_op_m3e5cbc4f6d572e6d72a39e22906195d6d10d399319a80cbfc517383153be4572_executorPN12_GLOBAL__N_186__struct_compiled_op_m3e5cbc4f6d572e6d72a39e22906195d6d10d399319a80cbfc517383153be4572E, symObjAddr: 0x3CC, symBinAddr: 0x1848, symSize: 0x1A40 }
  - { offsetInCU: 0x5939, offset: 0x5939, size: 0x8, addend: 0x0, symName: __ZL97__struct_compiled_op_m3e5cbc4f6d572e6d72a39e22906195d6d10d399319a80cbfc517383153be4572_destructorP7_object, symObjAddr: 0x1E0C, symBinAddr: 0x3288, symSize: 0x140 }
  - { offsetInCU: 0x5964, offset: 0x5964, size: 0x8, addend: 0x0, symName: __ZL95__struct_compiled_op_m3e5cbc4f6d572e6d72a39e22906195d6d10d399319a80cbfc517383153be4572_executorPN12_GLOBAL__N_186__struct_compiled_op_m3e5cbc4f6d572e6d72a39e22906195d6d10d399319a80cbfc517383153be4572E.cold.1, symObjAddr: 0x1F9C, symBinAddr: 0x3418, symSize: 0x28 }
  - { offsetInCU: 0x5991, offset: 0x5991, size: 0x8, addend: 0x0, symName: __ZL95__struct_compiled_op_m3e5cbc4f6d572e6d72a39e22906195d6d10d399319a80cbfc517383153be4572_executorPN12_GLOBAL__N_186__struct_compiled_op_m3e5cbc4f6d572e6d72a39e22906195d6d10d399319a80cbfc517383153be4572E.cold.5, symObjAddr: 0x203C, symBinAddr: 0x34B8, symSize: 0x28 }
  - { offsetInCU: 0x59BE, offset: 0x59BE, size: 0x8, addend: 0x0, symName: __ZL95__struct_compiled_op_m3e5cbc4f6d572e6d72a39e22906195d6d10d399319a80cbfc517383153be4572_executorPN12_GLOBAL__N_186__struct_compiled_op_m3e5cbc4f6d572e6d72a39e22906195d6d10d399319a80cbfc517383153be4572E.cold.7, symObjAddr: 0x208C, symBinAddr: 0x3508, symSize: 0x28 }
  - { offsetInCU: 0x5A02, offset: 0x5A02, size: 0x8, addend: 0x0, symName: __ZL95__struct_compiled_op_m3e5cbc4f6d572e6d72a39e22906195d6d10d399319a80cbfc517383153be4572_executorPN12_GLOBAL__N_186__struct_compiled_op_m3e5cbc4f6d572e6d72a39e22906195d6d10d399319a80cbfc517383153be4572E.cold.2, symObjAddr: 0x1FC4, symBinAddr: 0x3440, symSize: 0x28 }
  - { offsetInCU: 0x5A2F, offset: 0x5A2F, size: 0x8, addend: 0x0, symName: __ZL95__struct_compiled_op_m3e5cbc4f6d572e6d72a39e22906195d6d10d399319a80cbfc517383153be4572_executorPN12_GLOBAL__N_186__struct_compiled_op_m3e5cbc4f6d572e6d72a39e22906195d6d10d399319a80cbfc517383153be4572E.cold.3, symObjAddr: 0x1FEC, symBinAddr: 0x3468, symSize: 0x28 }
  - { offsetInCU: 0x5A5C, offset: 0x5A5C, size: 0x8, addend: 0x0, symName: __ZL95__struct_compiled_op_m3e5cbc4f6d572e6d72a39e22906195d6d10d399319a80cbfc517383153be4572_executorPN12_GLOBAL__N_186__struct_compiled_op_m3e5cbc4f6d572e6d72a39e22906195d6d10d399319a80cbfc517383153be4572E.cold.4, symObjAddr: 0x2014, symBinAddr: 0x3490, symSize: 0x28 }
  - { offsetInCU: 0x5A89, offset: 0x5A89, size: 0x8, addend: 0x0, symName: __ZL95__struct_compiled_op_m3e5cbc4f6d572e6d72a39e22906195d6d10d399319a80cbfc517383153be4572_executorPN12_GLOBAL__N_186__struct_compiled_op_m3e5cbc4f6d572e6d72a39e22906195d6d10d399319a80cbfc517383153be4572E.cold.6, symObjAddr: 0x2064, symBinAddr: 0x34E0, symSize: 0x28 }
  - { offsetInCU: 0x5AB6, offset: 0x5AB6, size: 0x8, addend: 0x0, symName: __ZL95__struct_compiled_op_m3e5cbc4f6d572e6d72a39e22906195d6d10d399319a80cbfc517383153be4572_executorPN12_GLOBAL__N_186__struct_compiled_op_m3e5cbc4f6d572e6d72a39e22906195d6d10d399319a80cbfc517383153be4572E.cold.8, symObjAddr: 0x20B4, symBinAddr: 0x3530, symSize: 0x28 }
  - { offsetInCU: 0x5AE3, offset: 0x5AE3, size: 0x8, addend: 0x0, symName: __ZL95__struct_compiled_op_m3e5cbc4f6d572e6d72a39e22906195d6d10d399319a80cbfc517383153be4572_executorPN12_GLOBAL__N_186__struct_compiled_op_m3e5cbc4f6d572e6d72a39e22906195d6d10d399319a80cbfc517383153be4572E.cold.9, symObjAddr: 0x20DC, symBinAddr: 0x3558, symSize: 0x28 }
  - { offsetInCU: 0x5B10, offset: 0x5B10, size: 0x8, addend: 0x0, symName: __ZL95__struct_compiled_op_m3e5cbc4f6d572e6d72a39e22906195d6d10d399319a80cbfc517383153be4572_executorPN12_GLOBAL__N_186__struct_compiled_op_m3e5cbc4f6d572e6d72a39e22906195d6d10d399319a80cbfc517383153be4572E.cold.10, symObjAddr: 0x2104, symBinAddr: 0x3580, symSize: 0x28 }
  - { offsetInCU: 0x5B3D, offset: 0x5B3D, size: 0x8, addend: 0x0, symName: __ZL95__struct_compiled_op_m3e5cbc4f6d572e6d72a39e22906195d6d10d399319a80cbfc517383153be4572_executorPN12_GLOBAL__N_186__struct_compiled_op_m3e5cbc4f6d572e6d72a39e22906195d6d10d399319a80cbfc517383153be4572E.cold.11, symObjAddr: 0x212C, symBinAddr: 0x35A8, symSize: 0x28 }
  - { offsetInCU: 0x5B6A, offset: 0x5B6A, size: 0x8, addend: 0x0, symName: __ZL95__struct_compiled_op_m3e5cbc4f6d572e6d72a39e22906195d6d10d399319a80cbfc517383153be4572_executorPN12_GLOBAL__N_186__struct_compiled_op_m3e5cbc4f6d572e6d72a39e22906195d6d10d399319a80cbfc517383153be4572E.cold.12, symObjAddr: 0x2154, symBinAddr: 0x35D0, symSize: 0x28 }
  - { offsetInCU: 0x5B97, offset: 0x5B97, size: 0x8, addend: 0x0, symName: __ZL95__struct_compiled_op_m3e5cbc4f6d572e6d72a39e22906195d6d10d399319a80cbfc517383153be4572_executorPN12_GLOBAL__N_186__struct_compiled_op_m3e5cbc4f6d572e6d72a39e22906195d6d10d399319a80cbfc517383153be4572E.cold.13, symObjAddr: 0x217C, symBinAddr: 0x35F8, symSize: 0x28 }
  - { offsetInCU: 0x5CBC, offset: 0x5CBC, size: 0x8, addend: 0x0, symName: __ZL97__struct_compiled_op_m3e5cbc4f6d572e6d72a39e22906195d6d10d399319a80cbfc517383153be4572_destructorP7_object, symObjAddr: 0x1E0C, symBinAddr: 0x3288, symSize: 0x140 }
...
