---
triple:          'arm64-apple-darwin'
binary-path:     '/Users/paulosoares/personal/phd/code/tomcat-coordination/.pytensor_compiles/compiledir_2024.10.16--21.29.11_0/tmpyiys56_p/m169e1035104123ad9542fb9344e3bbb246b715aa1f0c1a8e5548ff182a5da1d8.so'
relocations:
  - { offsetInCU: 0x26, offset: 0x26, size: 0x8, addend: 0x0, symName: _PyInit_m169e1035104123ad9542fb9344e3bbb246b715aa1f0c1a8e5548ff182a5da1d8, symObjAddr: 0x0, symBinAddr: 0x1DB4, symSize: 0x224 }
  - { offsetInCU: 0x53, offset: 0x53, size: 0x8, addend: 0x0, symName: __ZL11PyArray_API, symObjAddr: 0x11670, symBinAddr: 0x8140, symSize: 0x0 }
  - { offsetInCU: 0x73, offset: 0x73, size: 0x8, addend: 0x0, symName: __ZL9moduledef, symObjAddr: 0x2018, symBinAddr: 0x8098, symSize: 0x0 }
  - { offsetInCU: 0xC86, offset: 0xC86, size: 0x8, addend: 0x0, symName: __ZL9MyMethods, symObjAddr: 0x2080, symBinAddr: 0x8100, symSize: 0x0 }
  - { offsetInCU: 0x3BA8, offset: 0x3BA8, size: 0x8, addend: 0x0, symName: _PyInit_m169e1035104123ad9542fb9344e3bbb246b715aa1f0c1a8e5548ff182a5da1d8, symObjAddr: 0x0, symBinAddr: 0x1DB4, symSize: 0x224 }
  - { offsetInCU: 0x3E3C, offset: 0x3E3C, size: 0x8, addend: 0x0, symName: __ZL11instantiateP7_objectS0_, symObjAddr: 0x224, symBinAddr: 0x1FD8, symSize: 0x160 }
  - { offsetInCU: 0x40D0, offset: 0x40D0, size: 0x8, addend: 0x0, symName: __ZL95__struct_compiled_op_m169e1035104123ad9542fb9344e3bbb246b715aa1f0c1a8e5548ff182a5da1d8_executorPN12_GLOBAL__N_186__struct_compiled_op_m169e1035104123ad9542fb9344e3bbb246b715aa1f0c1a8e5548ff182a5da1d8E, symObjAddr: 0x384, symBinAddr: 0x2138, symSize: 0x1314 }
  - { offsetInCU: 0x412E, offset: 0x412E, size: 0x8, addend: 0x0, symName: __ZL11instantiateP7_objectS0_.cold.1, symObjAddr: 0x1784, symBinAddr: 0x3538, symSize: 0x28 }
  - { offsetInCU: 0x4145, offset: 0x4145, size: 0x8, addend: 0x0, symName: __ZL11instantiateP7_objectS0_.cold.2, symObjAddr: 0x17AC, symBinAddr: 0x3560, symSize: 0x28 }
  - { offsetInCU: 0x4390, offset: 0x4390, size: 0x8, addend: 0x0, symName: __ZL95__struct_compiled_op_m169e1035104123ad9542fb9344e3bbb246b715aa1f0c1a8e5548ff182a5da1d8_executorPN12_GLOBAL__N_186__struct_compiled_op_m169e1035104123ad9542fb9344e3bbb246b715aa1f0c1a8e5548ff182a5da1d8E, symObjAddr: 0x384, symBinAddr: 0x2138, symSize: 0x1314 }
  - { offsetInCU: 0x5063, offset: 0x5063, size: 0x8, addend: 0x0, symName: __ZL97__struct_compiled_op_m169e1035104123ad9542fb9344e3bbb246b715aa1f0c1a8e5548ff182a5da1d8_destructorP7_object, symObjAddr: 0x1698, symBinAddr: 0x344C, symSize: 0xEC }
  - { offsetInCU: 0x508E, offset: 0x508E, size: 0x8, addend: 0x0, symName: __ZL95__struct_compiled_op_m169e1035104123ad9542fb9344e3bbb246b715aa1f0c1a8e5548ff182a5da1d8_executorPN12_GLOBAL__N_186__struct_compiled_op_m169e1035104123ad9542fb9344e3bbb246b715aa1f0c1a8e5548ff182a5da1d8E.cold.1, symObjAddr: 0x17D4, symBinAddr: 0x3588, symSize: 0x28 }
  - { offsetInCU: 0x50BB, offset: 0x50BB, size: 0x8, addend: 0x0, symName: __ZL95__struct_compiled_op_m169e1035104123ad9542fb9344e3bbb246b715aa1f0c1a8e5548ff182a5da1d8_executorPN12_GLOBAL__N_186__struct_compiled_op_m169e1035104123ad9542fb9344e3bbb246b715aa1f0c1a8e5548ff182a5da1d8E.cold.5, symObjAddr: 0x1874, symBinAddr: 0x3628, symSize: 0x28 }
  - { offsetInCU: 0x50E8, offset: 0x50E8, size: 0x8, addend: 0x0, symName: __ZL95__struct_compiled_op_m169e1035104123ad9542fb9344e3bbb246b715aa1f0c1a8e5548ff182a5da1d8_executorPN12_GLOBAL__N_186__struct_compiled_op_m169e1035104123ad9542fb9344e3bbb246b715aa1f0c1a8e5548ff182a5da1d8E.cold.7, symObjAddr: 0x18C4, symBinAddr: 0x3678, symSize: 0x28 }
  - { offsetInCU: 0x512C, offset: 0x512C, size: 0x8, addend: 0x0, symName: __ZL95__struct_compiled_op_m169e1035104123ad9542fb9344e3bbb246b715aa1f0c1a8e5548ff182a5da1d8_executorPN12_GLOBAL__N_186__struct_compiled_op_m169e1035104123ad9542fb9344e3bbb246b715aa1f0c1a8e5548ff182a5da1d8E.cold.2, symObjAddr: 0x17FC, symBinAddr: 0x35B0, symSize: 0x28 }
  - { offsetInCU: 0x5159, offset: 0x5159, size: 0x8, addend: 0x0, symName: __ZL95__struct_compiled_op_m169e1035104123ad9542fb9344e3bbb246b715aa1f0c1a8e5548ff182a5da1d8_executorPN12_GLOBAL__N_186__struct_compiled_op_m169e1035104123ad9542fb9344e3bbb246b715aa1f0c1a8e5548ff182a5da1d8E.cold.3, symObjAddr: 0x1824, symBinAddr: 0x35D8, symSize: 0x28 }
  - { offsetInCU: 0x5186, offset: 0x5186, size: 0x8, addend: 0x0, symName: __ZL95__struct_compiled_op_m169e1035104123ad9542fb9344e3bbb246b715aa1f0c1a8e5548ff182a5da1d8_executorPN12_GLOBAL__N_186__struct_compiled_op_m169e1035104123ad9542fb9344e3bbb246b715aa1f0c1a8e5548ff182a5da1d8E.cold.4, symObjAddr: 0x184C, symBinAddr: 0x3600, symSize: 0x28 }
  - { offsetInCU: 0x51B3, offset: 0x51B3, size: 0x8, addend: 0x0, symName: __ZL95__struct_compiled_op_m169e1035104123ad9542fb9344e3bbb246b715aa1f0c1a8e5548ff182a5da1d8_executorPN12_GLOBAL__N_186__struct_compiled_op_m169e1035104123ad9542fb9344e3bbb246b715aa1f0c1a8e5548ff182a5da1d8E.cold.6, symObjAddr: 0x189C, symBinAddr: 0x3650, symSize: 0x28 }
  - { offsetInCU: 0x51E0, offset: 0x51E0, size: 0x8, addend: 0x0, symName: __ZL95__struct_compiled_op_m169e1035104123ad9542fb9344e3bbb246b715aa1f0c1a8e5548ff182a5da1d8_executorPN12_GLOBAL__N_186__struct_compiled_op_m169e1035104123ad9542fb9344e3bbb246b715aa1f0c1a8e5548ff182a5da1d8E.cold.8, symObjAddr: 0x18EC, symBinAddr: 0x36A0, symSize: 0x28 }
  - { offsetInCU: 0x520D, offset: 0x520D, size: 0x8, addend: 0x0, symName: __ZL95__struct_compiled_op_m169e1035104123ad9542fb9344e3bbb246b715aa1f0c1a8e5548ff182a5da1d8_executorPN12_GLOBAL__N_186__struct_compiled_op_m169e1035104123ad9542fb9344e3bbb246b715aa1f0c1a8e5548ff182a5da1d8E.cold.9, symObjAddr: 0x1914, symBinAddr: 0x36C8, symSize: 0x28 }
  - { offsetInCU: 0x523A, offset: 0x523A, size: 0x8, addend: 0x0, symName: __ZL95__struct_compiled_op_m169e1035104123ad9542fb9344e3bbb246b715aa1f0c1a8e5548ff182a5da1d8_executorPN12_GLOBAL__N_186__struct_compiled_op_m169e1035104123ad9542fb9344e3bbb246b715aa1f0c1a8e5548ff182a5da1d8E.cold.10, symObjAddr: 0x193C, symBinAddr: 0x36F0, symSize: 0x28 }
  - { offsetInCU: 0x5329, offset: 0x5329, size: 0x8, addend: 0x0, symName: __ZL97__struct_compiled_op_m169e1035104123ad9542fb9344e3bbb246b715aa1f0c1a8e5548ff182a5da1d8_destructorP7_object, symObjAddr: 0x1698, symBinAddr: 0x344C, symSize: 0xEC }
...
