---
triple:          'arm64-apple-darwin'
binary-path:     '/Users/paulosoares/personal/phd/code/tomcat-coordination/.pytensor_compiles/compiledir_2024.10.16--21.28.53_0/tmp2lyvkp6g/me694b0ebe8208846601fecb3383d9a16facfcf6994c878ea1a2080496390d4b3.so'
relocations:
  - { offsetInCU: 0x26, offset: 0x26, size: 0x8, addend: 0x0, symName: _PyInit_me694b0ebe8208846601fecb3383d9a16facfcf6994c878ea1a2080496390d4b3, symObjAddr: 0x0, symBinAddr: 0x1280, symSize: 0x224 }
  - { offsetInCU: 0x53, offset: 0x53, size: 0x8, addend: 0x0, symName: __ZL11PyArray_API, symObjAddr: 0x149B8, symBinAddr: 0x8140, symSize: 0x0 }
  - { offsetInCU: 0x73, offset: 0x73, size: 0x8, addend: 0x0, symName: __ZL9moduledef, symObjAddr: 0x2B48, symBinAddr: 0x8098, symSize: 0x0 }
  - { offsetInCU: 0xC86, offset: 0xC86, size: 0x8, addend: 0x0, symName: __ZL9MyMethods, symObjAddr: 0x2BB0, symBinAddr: 0x8100, symSize: 0x0 }
  - { offsetInCU: 0x3BEC, offset: 0x3BEC, size: 0x8, addend: 0x0, symName: _PyInit_me694b0ebe8208846601fecb3383d9a16facfcf6994c878ea1a2080496390d4b3, symObjAddr: 0x0, symBinAddr: 0x1280, symSize: 0x224 }
  - { offsetInCU: 0x3EDC, offset: 0x3EDC, size: 0x8, addend: 0x0, symName: __ZL11instantiateP7_objectS0_, symObjAddr: 0x224, symBinAddr: 0x14A4, symSize: 0x1C4 }
  - { offsetInCU: 0x42A9, offset: 0x42A9, size: 0x8, addend: 0x0, symName: __ZL95__struct_compiled_op_me694b0ebe8208846601fecb3383d9a16facfcf6994c878ea1a2080496390d4b3_executorPN12_GLOBAL__N_186__struct_compiled_op_me694b0ebe8208846601fecb3383d9a16facfcf6994c878ea1a2080496390d4b3E, symObjAddr: 0x3E8, symBinAddr: 0x1668, symSize: 0x1D48 }
  - { offsetInCU: 0x4307, offset: 0x4307, size: 0x8, addend: 0x0, symName: __ZL11instantiateP7_objectS0_.cold.1, symObjAddr: 0x228C, symBinAddr: 0x350C, symSize: 0x28 }
  - { offsetInCU: 0x431E, offset: 0x431E, size: 0x8, addend: 0x0, symName: __ZL11instantiateP7_objectS0_.cold.2, symObjAddr: 0x22B4, symBinAddr: 0x3534, symSize: 0x28 }
  - { offsetInCU: 0x4637, offset: 0x4637, size: 0x8, addend: 0x0, symName: __ZL95__struct_compiled_op_me694b0ebe8208846601fecb3383d9a16facfcf6994c878ea1a2080496390d4b3_executorPN12_GLOBAL__N_186__struct_compiled_op_me694b0ebe8208846601fecb3383d9a16facfcf6994c878ea1a2080496390d4b3E, symObjAddr: 0x3E8, symBinAddr: 0x1668, symSize: 0x1D48 }
  - { offsetInCU: 0x58CD, offset: 0x58CD, size: 0x8, addend: 0x0, symName: __ZL97__struct_compiled_op_me694b0ebe8208846601fecb3383d9a16facfcf6994c878ea1a2080496390d4b3_destructorP7_object, symObjAddr: 0x2130, symBinAddr: 0x33B0, symSize: 0x15C }
  - { offsetInCU: 0x58F8, offset: 0x58F8, size: 0x8, addend: 0x0, symName: __ZL95__struct_compiled_op_me694b0ebe8208846601fecb3383d9a16facfcf6994c878ea1a2080496390d4b3_executorPN12_GLOBAL__N_186__struct_compiled_op_me694b0ebe8208846601fecb3383d9a16facfcf6994c878ea1a2080496390d4b3E.cold.1, symObjAddr: 0x22DC, symBinAddr: 0x355C, symSize: 0x28 }
  - { offsetInCU: 0x5925, offset: 0x5925, size: 0x8, addend: 0x0, symName: __ZL95__struct_compiled_op_me694b0ebe8208846601fecb3383d9a16facfcf6994c878ea1a2080496390d4b3_executorPN12_GLOBAL__N_186__struct_compiled_op_me694b0ebe8208846601fecb3383d9a16facfcf6994c878ea1a2080496390d4b3E.cold.5, symObjAddr: 0x237C, symBinAddr: 0x35FC, symSize: 0x28 }
  - { offsetInCU: 0x5952, offset: 0x5952, size: 0x8, addend: 0x0, symName: __ZL95__struct_compiled_op_me694b0ebe8208846601fecb3383d9a16facfcf6994c878ea1a2080496390d4b3_executorPN12_GLOBAL__N_186__struct_compiled_op_me694b0ebe8208846601fecb3383d9a16facfcf6994c878ea1a2080496390d4b3E.cold.7, symObjAddr: 0x23CC, symBinAddr: 0x364C, symSize: 0x28 }
  - { offsetInCU: 0x597F, offset: 0x597F, size: 0x8, addend: 0x0, symName: __ZL95__struct_compiled_op_me694b0ebe8208846601fecb3383d9a16facfcf6994c878ea1a2080496390d4b3_executorPN12_GLOBAL__N_186__struct_compiled_op_me694b0ebe8208846601fecb3383d9a16facfcf6994c878ea1a2080496390d4b3E.cold.8, symObjAddr: 0x23F4, symBinAddr: 0x3674, symSize: 0x28 }
  - { offsetInCU: 0x59AC, offset: 0x59AC, size: 0x8, addend: 0x0, symName: __ZL95__struct_compiled_op_me694b0ebe8208846601fecb3383d9a16facfcf6994c878ea1a2080496390d4b3_executorPN12_GLOBAL__N_186__struct_compiled_op_me694b0ebe8208846601fecb3383d9a16facfcf6994c878ea1a2080496390d4b3E.cold.9, symObjAddr: 0x241C, symBinAddr: 0x369C, symSize: 0x28 }
  - { offsetInCU: 0x59D9, offset: 0x59D9, size: 0x8, addend: 0x0, symName: __ZL95__struct_compiled_op_me694b0ebe8208846601fecb3383d9a16facfcf6994c878ea1a2080496390d4b3_executorPN12_GLOBAL__N_186__struct_compiled_op_me694b0ebe8208846601fecb3383d9a16facfcf6994c878ea1a2080496390d4b3E.cold.10, symObjAddr: 0x2444, symBinAddr: 0x36C4, symSize: 0x28 }
  - { offsetInCU: 0x5A06, offset: 0x5A06, size: 0x8, addend: 0x0, symName: __ZL95__struct_compiled_op_me694b0ebe8208846601fecb3383d9a16facfcf6994c878ea1a2080496390d4b3_executorPN12_GLOBAL__N_186__struct_compiled_op_me694b0ebe8208846601fecb3383d9a16facfcf6994c878ea1a2080496390d4b3E.cold.11, symObjAddr: 0x246C, symBinAddr: 0x36EC, symSize: 0x28 }
  - { offsetInCU: 0x5A4A, offset: 0x5A4A, size: 0x8, addend: 0x0, symName: __ZL95__struct_compiled_op_me694b0ebe8208846601fecb3383d9a16facfcf6994c878ea1a2080496390d4b3_executorPN12_GLOBAL__N_186__struct_compiled_op_me694b0ebe8208846601fecb3383d9a16facfcf6994c878ea1a2080496390d4b3E.cold.2, symObjAddr: 0x2304, symBinAddr: 0x3584, symSize: 0x28 }
  - { offsetInCU: 0x5A77, offset: 0x5A77, size: 0x8, addend: 0x0, symName: __ZL95__struct_compiled_op_me694b0ebe8208846601fecb3383d9a16facfcf6994c878ea1a2080496390d4b3_executorPN12_GLOBAL__N_186__struct_compiled_op_me694b0ebe8208846601fecb3383d9a16facfcf6994c878ea1a2080496390d4b3E.cold.3, symObjAddr: 0x232C, symBinAddr: 0x35AC, symSize: 0x28 }
  - { offsetInCU: 0x5AA4, offset: 0x5AA4, size: 0x8, addend: 0x0, symName: __ZL95__struct_compiled_op_me694b0ebe8208846601fecb3383d9a16facfcf6994c878ea1a2080496390d4b3_executorPN12_GLOBAL__N_186__struct_compiled_op_me694b0ebe8208846601fecb3383d9a16facfcf6994c878ea1a2080496390d4b3E.cold.4, symObjAddr: 0x2354, symBinAddr: 0x35D4, symSize: 0x28 }
  - { offsetInCU: 0x5AD1, offset: 0x5AD1, size: 0x8, addend: 0x0, symName: __ZL95__struct_compiled_op_me694b0ebe8208846601fecb3383d9a16facfcf6994c878ea1a2080496390d4b3_executorPN12_GLOBAL__N_186__struct_compiled_op_me694b0ebe8208846601fecb3383d9a16facfcf6994c878ea1a2080496390d4b3E.cold.6, symObjAddr: 0x23A4, symBinAddr: 0x3624, symSize: 0x28 }
  - { offsetInCU: 0x5AFE, offset: 0x5AFE, size: 0x8, addend: 0x0, symName: __ZL95__struct_compiled_op_me694b0ebe8208846601fecb3383d9a16facfcf6994c878ea1a2080496390d4b3_executorPN12_GLOBAL__N_186__struct_compiled_op_me694b0ebe8208846601fecb3383d9a16facfcf6994c878ea1a2080496390d4b3E.cold.12, symObjAddr: 0x2494, symBinAddr: 0x3714, symSize: 0x28 }
  - { offsetInCU: 0x5B2B, offset: 0x5B2B, size: 0x8, addend: 0x0, symName: __ZL95__struct_compiled_op_me694b0ebe8208846601fecb3383d9a16facfcf6994c878ea1a2080496390d4b3_executorPN12_GLOBAL__N_186__struct_compiled_op_me694b0ebe8208846601fecb3383d9a16facfcf6994c878ea1a2080496390d4b3E.cold.13, symObjAddr: 0x24BC, symBinAddr: 0x373C, symSize: 0x28 }
  - { offsetInCU: 0x5B58, offset: 0x5B58, size: 0x8, addend: 0x0, symName: __ZL95__struct_compiled_op_me694b0ebe8208846601fecb3383d9a16facfcf6994c878ea1a2080496390d4b3_executorPN12_GLOBAL__N_186__struct_compiled_op_me694b0ebe8208846601fecb3383d9a16facfcf6994c878ea1a2080496390d4b3E.cold.14, symObjAddr: 0x24E4, symBinAddr: 0x3764, symSize: 0x28 }
  - { offsetInCU: 0x5C8F, offset: 0x5C8F, size: 0x8, addend: 0x0, symName: __ZL97__struct_compiled_op_me694b0ebe8208846601fecb3383d9a16facfcf6994c878ea1a2080496390d4b3_destructorP7_object, symObjAddr: 0x2130, symBinAddr: 0x33B0, symSize: 0x15C }
...
