---
triple:          'arm64-apple-darwin'
binary-path:     '/Users/paulosoares/personal/phd/code/tomcat-coordination/.pytensor_compiles/compiledir_2024.10.16--21.28.53_1/tmpvh7si5zq/m47aa674c5c4fcadb9e75a4907c2090e71f50beacd6d78ea26df1e0174c0df348.so'
relocations:
  - { offsetInCU: 0x26, offset: 0x26, size: 0x8, addend: 0x0, symName: _PyInit_m47aa674c5c4fcadb9e75a4907c2090e71f50beacd6d78ea26df1e0174c0df348, symObjAddr: 0x0, symBinAddr: 0xC44, symSize: 0x224 }
  - { offsetInCU: 0x53, offset: 0x53, size: 0x8, addend: 0x0, symName: __ZL11PyArray_API, symObjAddr: 0x29A18, symBinAddr: 0x8140, symSize: 0x0 }
  - { offsetInCU: 0x73, offset: 0x73, size: 0x8, addend: 0x0, symName: __ZL9moduledef, symObjAddr: 0x3188, symBinAddr: 0x8098, symSize: 0x0 }
  - { offsetInCU: 0xC86, offset: 0xC86, size: 0x8, addend: 0x0, symName: __ZL9MyMethods, symObjAddr: 0x31F0, symBinAddr: 0x8100, symSize: 0x0 }
  - { offsetInCU: 0x20BF, offset: 0x20BF, size: 0x8, addend: 0x0, symName: __ZNSt3__111__sift_downB8un170006INS_17_ClassicAlgPolicyERNS_6__lessIvvEENS_16reverse_iteratorINS_11__wrap_iterIPNS_4pairIiiEEEEEEEEvT1_OT0_NS_15iterator_traitsISC_E15difference_typeESC_, symObjAddr: 0x15E4, symBinAddr: 0x2228, symSize: 0x130 }
  - { offsetInCU: 0x23D3, offset: 0x23D3, size: 0x8, addend: 0x0, symName: __ZNSt3__111__introsortINS_17_ClassicAlgPolicyERNS_6__lessIvvEENS_16reverse_iteratorINS_11__wrap_iterIPNS_4pairIiiEEEEEELb0EEEvT1_SC_T0_NS_15iterator_traitsISC_E15difference_typeEb, symObjAddr: 0x1870, symBinAddr: 0x24B4, symSize: 0x760 }
  - { offsetInCU: 0x3667, offset: 0x3667, size: 0x8, addend: 0x0, symName: __ZNSt3__131__partition_with_equals_on_leftB8un170006INS_17_ClassicAlgPolicyENS_16reverse_iteratorINS_11__wrap_iterIPNS_4pairIiiEEEEEERNS_6__lessIvvEEEET0_SC_SC_T1_, symObjAddr: 0x2164, symBinAddr: 0x2DA8, symSize: 0x18C }
  - { offsetInCU: 0x39E5, offset: 0x39E5, size: 0x8, addend: 0x0, symName: __ZNSt3__132__partition_with_equals_on_rightB8un170006INS_17_ClassicAlgPolicyENS_16reverse_iteratorINS_11__wrap_iterIPNS_4pairIiiEEEEEERNS_6__lessIvvEEEENS4_IT0_bEESC_SC_T1_, symObjAddr: 0x22F0, symBinAddr: 0x2F34, symSize: 0x150 }
  - { offsetInCU: 0x3DFB, offset: 0x3DFB, size: 0x8, addend: 0x0, symName: __ZNSt3__127__insertion_sort_incompleteB8un170006INS_17_ClassicAlgPolicyERNS_6__lessIvvEENS_16reverse_iteratorINS_11__wrap_iterIPNS_4pairIiiEEEEEEEEbT1_SC_T0_, symObjAddr: 0x2440, symBinAddr: 0x3084, symSize: 0x334 }
  - { offsetInCU: 0x5A5E, offset: 0x5A5E, size: 0x8, addend: 0x0, symName: __ZNSt3__119__partial_sort_implB8un170006INS_17_ClassicAlgPolicyERNS_6__lessIvvEENS_16reverse_iteratorINS_11__wrap_iterIPNS_4pairIiiEEEEEESB_EET1_SC_SC_T2_OT0_, symObjAddr: 0x1478, symBinAddr: 0x20BC, symSize: 0x16C }
  - { offsetInCU: 0x5DB1, offset: 0x5DB1, size: 0x8, addend: 0x0, symName: __ZNSt3__110__pop_heapB8un170006INS_17_ClassicAlgPolicyENS_6__lessIvvEENS_16reverse_iteratorINS_11__wrap_iterIPNS_4pairIiiEEEEEEEEvT1_SB_RT0_NS_15iterator_traitsISB_E15difference_typeE, symObjAddr: 0x1714, symBinAddr: 0x2358, symSize: 0x15C }
  - { offsetInCU: 0x664C, offset: 0x664C, size: 0x8, addend: 0x0, symName: __ZNSt3__17__sort3B8un170006INS_17_ClassicAlgPolicyERNS_6__lessIvvEENS_16reverse_iteratorINS_11__wrap_iterIPNS_4pairIiiEEEEEEEEjT1_SC_SC_T0_, symObjAddr: 0x1FD0, symBinAddr: 0x2C14, symSize: 0x194 }
  - { offsetInCU: 0x66B6, offset: 0x66B6, size: 0x8, addend: 0x0, symName: __ZNSt3__17__sort3B8un170006INS_17_ClassicAlgPolicyERNS_6__lessIvvEENS_16reverse_iteratorINS_11__wrap_iterIPNS_4pairIiiEEEEEEEEjT1_SC_SC_T0_, symObjAddr: 0x1FD0, symBinAddr: 0x2C14, symSize: 0x194 }
  - { offsetInCU: 0x66DC, offset: 0x66DC, size: 0x8, addend: 0x0, symName: __ZNSt3__17__sort3B8un170006INS_17_ClassicAlgPolicyERNS_6__lessIvvEENS_16reverse_iteratorINS_11__wrap_iterIPNS_4pairIiiEEEEEEEEjT1_SC_SC_T0_, symObjAddr: 0x1FD0, symBinAddr: 0x2C14, symSize: 0x194 }
  - { offsetInCU: 0x6AFA, offset: 0x6AFA, size: 0x8, addend: 0x0, symName: __ZNSt3__17__sort5B8un170006INS_17_ClassicAlgPolicyERNS_6__lessIvvEENS_16reverse_iteratorINS_11__wrap_iterIPNS_4pairIiiEEEEEEEEvT1_SC_SC_SC_SC_T0_, symObjAddr: 0x2774, symBinAddr: 0x33B8, symSize: 0x21C }
  - { offsetInCU: 0x9AA6, offset: 0x9AA6, size: 0x8, addend: 0x0, symName: _PyInit_m47aa674c5c4fcadb9e75a4907c2090e71f50beacd6d78ea26df1e0174c0df348, symObjAddr: 0x0, symBinAddr: 0xC44, symSize: 0x224 }
  - { offsetInCU: 0x9D2C, offset: 0x9D2C, size: 0x8, addend: 0x0, symName: __ZL11instantiateP7_objectS0_, symObjAddr: 0x224, symBinAddr: 0xE68, symSize: 0x120 }
  - { offsetInCU: 0x9F18, offset: 0x9F18, size: 0x8, addend: 0x0, symName: __ZL95__struct_compiled_op_m47aa674c5c4fcadb9e75a4907c2090e71f50beacd6d78ea26df1e0174c0df348_executorPN12_GLOBAL__N_186__struct_compiled_op_m47aa674c5c4fcadb9e75a4907c2090e71f50beacd6d78ea26df1e0174c0df348E, symObjAddr: 0x344, symBinAddr: 0xF88, symSize: 0x109C }
  - { offsetInCU: 0x9F8D, offset: 0x9F8D, size: 0x8, addend: 0x0, symName: __ZL11instantiateP7_objectS0_.cold.1, symObjAddr: 0x2990, symBinAddr: 0x35D4, symSize: 0x28 }
  - { offsetInCU: 0x9FA5, offset: 0x9FA5, size: 0x8, addend: 0x0, symName: __ZL11instantiateP7_objectS0_.cold.2, symObjAddr: 0x29B8, symBinAddr: 0x35FC, symSize: 0x28 }
  - { offsetInCU: 0xA501, offset: 0xA501, size: 0x8, addend: 0x0, symName: __ZL95__struct_compiled_op_m47aa674c5c4fcadb9e75a4907c2090e71f50beacd6d78ea26df1e0174c0df348_executorPN12_GLOBAL__N_186__struct_compiled_op_m47aa674c5c4fcadb9e75a4907c2090e71f50beacd6d78ea26df1e0174c0df348E, symObjAddr: 0x344, symBinAddr: 0xF88, symSize: 0x109C }
  - { offsetInCU: 0xB225, offset: 0xB225, size: 0x8, addend: 0x0, symName: __ZL95__struct_compiled_op_m47aa674c5c4fcadb9e75a4907c2090e71f50beacd6d78ea26df1e0174c0df348_executorPN12_GLOBAL__N_186__struct_compiled_op_m47aa674c5c4fcadb9e75a4907c2090e71f50beacd6d78ea26df1e0174c0df348E.cold.1, symObjAddr: 0x29E0, symBinAddr: 0x3624, symSize: 0x28 }
  - { offsetInCU: 0xB253, offset: 0xB253, size: 0x8, addend: 0x0, symName: __ZL95__struct_compiled_op_m47aa674c5c4fcadb9e75a4907c2090e71f50beacd6d78ea26df1e0174c0df348_executorPN12_GLOBAL__N_186__struct_compiled_op_m47aa674c5c4fcadb9e75a4907c2090e71f50beacd6d78ea26df1e0174c0df348E.cold.5, symObjAddr: 0x2A80, symBinAddr: 0x36C4, symSize: 0x28 }
  - { offsetInCU: 0xB2A9, offset: 0xB2A9, size: 0x8, addend: 0x0, symName: __ZL95__struct_compiled_op_m47aa674c5c4fcadb9e75a4907c2090e71f50beacd6d78ea26df1e0174c0df348_executorPN12_GLOBAL__N_186__struct_compiled_op_m47aa674c5c4fcadb9e75a4907c2090e71f50beacd6d78ea26df1e0174c0df348E.cold.2, symObjAddr: 0x2A08, symBinAddr: 0x364C, symSize: 0x28 }
  - { offsetInCU: 0xB2D7, offset: 0xB2D7, size: 0x8, addend: 0x0, symName: __ZL95__struct_compiled_op_m47aa674c5c4fcadb9e75a4907c2090e71f50beacd6d78ea26df1e0174c0df348_executorPN12_GLOBAL__N_186__struct_compiled_op_m47aa674c5c4fcadb9e75a4907c2090e71f50beacd6d78ea26df1e0174c0df348E.cold.3, symObjAddr: 0x2A30, symBinAddr: 0x3674, symSize: 0x28 }
  - { offsetInCU: 0xB305, offset: 0xB305, size: 0x8, addend: 0x0, symName: __ZL95__struct_compiled_op_m47aa674c5c4fcadb9e75a4907c2090e71f50beacd6d78ea26df1e0174c0df348_executorPN12_GLOBAL__N_186__struct_compiled_op_m47aa674c5c4fcadb9e75a4907c2090e71f50beacd6d78ea26df1e0174c0df348E.cold.4, symObjAddr: 0x2A58, symBinAddr: 0x369C, symSize: 0x28 }
  - { offsetInCU: 0xB333, offset: 0xB333, size: 0x8, addend: 0x0, symName: __ZL95__struct_compiled_op_m47aa674c5c4fcadb9e75a4907c2090e71f50beacd6d78ea26df1e0174c0df348_executorPN12_GLOBAL__N_186__struct_compiled_op_m47aa674c5c4fcadb9e75a4907c2090e71f50beacd6d78ea26df1e0174c0df348E.cold.6, symObjAddr: 0x2AA8, symBinAddr: 0x36EC, symSize: 0x28 }
  - { offsetInCU: 0xB361, offset: 0xB361, size: 0x8, addend: 0x0, symName: __ZL95__struct_compiled_op_m47aa674c5c4fcadb9e75a4907c2090e71f50beacd6d78ea26df1e0174c0df348_executorPN12_GLOBAL__N_186__struct_compiled_op_m47aa674c5c4fcadb9e75a4907c2090e71f50beacd6d78ea26df1e0174c0df348E.cold.7, symObjAddr: 0x2AD0, symBinAddr: 0x3714, symSize: 0x28 }
  - { offsetInCU: 0xB425, offset: 0xB425, size: 0x8, addend: 0x0, symName: __ZL97__struct_compiled_op_m47aa674c5c4fcadb9e75a4907c2090e71f50beacd6d78ea26df1e0174c0df348_destructorP7_object, symObjAddr: 0x13E0, symBinAddr: 0x2024, symSize: 0x98 }
...
