---
triple:          'arm64-apple-darwin'
binary-path:     '/Users/paulosoares/personal/phd/code/tomcat-coordination/.pytensor_compiles/compiledir_2024.10.16--21.29.11_1/tmp1uwj51rp/m163e4a920b367e009e8c58bb285d006895d3bc8ec2f2c7aefaff46da430c9cd0.so'
relocations:
  - { offsetInCU: 0x26, offset: 0x26, size: 0x8, addend: 0x0, symName: _PyInit_m163e4a920b367e009e8c58bb285d006895d3bc8ec2f2c7aefaff46da430c9cd0, symObjAddr: 0x0, symBinAddr: 0x8B8, symSize: 0x224 }
  - { offsetInCU: 0x53, offset: 0x53, size: 0x8, addend: 0x0, symName: __ZL11PyArray_API, symObjAddr: 0x29CD8, symBinAddr: 0x8140, symSize: 0x0 }
  - { offsetInCU: 0x73, offset: 0x73, size: 0x8, addend: 0x0, symName: __ZL9moduledef, symObjAddr: 0x3510, symBinAddr: 0x8098, symSize: 0x0 }
  - { offsetInCU: 0xC86, offset: 0xC86, size: 0x8, addend: 0x0, symName: __ZL9MyMethods, symObjAddr: 0x3578, symBinAddr: 0x8100, symSize: 0x0 }
  - { offsetInCU: 0x20BF, offset: 0x20BF, size: 0x8, addend: 0x0, symName: __ZNSt3__111__sift_downB8un170006INS_17_ClassicAlgPolicyERNS_6__lessIvvEENS_16reverse_iteratorINS_11__wrap_iterIPNS_4pairIiiEEEEEEEEvT1_OT0_NS_15iterator_traitsISC_E15difference_typeESC_, symObjAddr: 0x18A4, symBinAddr: 0x215C, symSize: 0x130 }
  - { offsetInCU: 0x23D3, offset: 0x23D3, size: 0x8, addend: 0x0, symName: __ZNSt3__111__introsortINS_17_ClassicAlgPolicyERNS_6__lessIvvEENS_16reverse_iteratorINS_11__wrap_iterIPNS_4pairIiiEEEEEELb0EEEvT1_SC_T0_NS_15iterator_traitsISC_E15difference_typeEb, symObjAddr: 0x1B30, symBinAddr: 0x23E8, symSize: 0x760 }
  - { offsetInCU: 0x3667, offset: 0x3667, size: 0x8, addend: 0x0, symName: __ZNSt3__131__partition_with_equals_on_leftB8un170006INS_17_ClassicAlgPolicyENS_16reverse_iteratorINS_11__wrap_iterIPNS_4pairIiiEEEEEERNS_6__lessIvvEEEET0_SC_SC_T1_, symObjAddr: 0x2424, symBinAddr: 0x2CDC, symSize: 0x18C }
  - { offsetInCU: 0x39E5, offset: 0x39E5, size: 0x8, addend: 0x0, symName: __ZNSt3__132__partition_with_equals_on_rightB8un170006INS_17_ClassicAlgPolicyENS_16reverse_iteratorINS_11__wrap_iterIPNS_4pairIiiEEEEEERNS_6__lessIvvEEEENS4_IT0_bEESC_SC_T1_, symObjAddr: 0x25B0, symBinAddr: 0x2E68, symSize: 0x150 }
  - { offsetInCU: 0x3DFB, offset: 0x3DFB, size: 0x8, addend: 0x0, symName: __ZNSt3__127__insertion_sort_incompleteB8un170006INS_17_ClassicAlgPolicyERNS_6__lessIvvEENS_16reverse_iteratorINS_11__wrap_iterIPNS_4pairIiiEEEEEEEEbT1_SC_T0_, symObjAddr: 0x2700, symBinAddr: 0x2FB8, symSize: 0x334 }
  - { offsetInCU: 0x5A5E, offset: 0x5A5E, size: 0x8, addend: 0x0, symName: __ZNSt3__119__partial_sort_implB8un170006INS_17_ClassicAlgPolicyERNS_6__lessIvvEENS_16reverse_iteratorINS_11__wrap_iterIPNS_4pairIiiEEEEEESB_EET1_SC_SC_T2_OT0_, symObjAddr: 0x1738, symBinAddr: 0x1FF0, symSize: 0x16C }
  - { offsetInCU: 0x5DB1, offset: 0x5DB1, size: 0x8, addend: 0x0, symName: __ZNSt3__110__pop_heapB8un170006INS_17_ClassicAlgPolicyENS_6__lessIvvEENS_16reverse_iteratorINS_11__wrap_iterIPNS_4pairIiiEEEEEEEEvT1_SB_RT0_NS_15iterator_traitsISB_E15difference_typeE, symObjAddr: 0x19D4, symBinAddr: 0x228C, symSize: 0x15C }
  - { offsetInCU: 0x664C, offset: 0x664C, size: 0x8, addend: 0x0, symName: __ZNSt3__17__sort3B8un170006INS_17_ClassicAlgPolicyERNS_6__lessIvvEENS_16reverse_iteratorINS_11__wrap_iterIPNS_4pairIiiEEEEEEEEjT1_SC_SC_T0_, symObjAddr: 0x2290, symBinAddr: 0x2B48, symSize: 0x194 }
  - { offsetInCU: 0x66B6, offset: 0x66B6, size: 0x8, addend: 0x0, symName: __ZNSt3__17__sort3B8un170006INS_17_ClassicAlgPolicyERNS_6__lessIvvEENS_16reverse_iteratorINS_11__wrap_iterIPNS_4pairIiiEEEEEEEEjT1_SC_SC_T0_, symObjAddr: 0x2290, symBinAddr: 0x2B48, symSize: 0x194 }
  - { offsetInCU: 0x66DC, offset: 0x66DC, size: 0x8, addend: 0x0, symName: __ZNSt3__17__sort3B8un170006INS_17_ClassicAlgPolicyERNS_6__lessIvvEENS_16reverse_iteratorINS_11__wrap_iterIPNS_4pairIiiEEEEEEEEjT1_SC_SC_T0_, symObjAddr: 0x2290, symBinAddr: 0x2B48, symSize: 0x194 }
  - { offsetInCU: 0x6AFA, offset: 0x6AFA, size: 0x8, addend: 0x0, symName: __ZNSt3__17__sort5B8un170006INS_17_ClassicAlgPolicyERNS_6__lessIvvEENS_16reverse_iteratorINS_11__wrap_iterIPNS_4pairIiiEEEEEEEEvT1_SC_SC_SC_SC_T0_, symObjAddr: 0x2A34, symBinAddr: 0x32EC, symSize: 0x21C }
  - { offsetInCU: 0x9AB7, offset: 0x9AB7, size: 0x8, addend: 0x0, symName: _PyInit_m163e4a920b367e009e8c58bb285d006895d3bc8ec2f2c7aefaff46da430c9cd0, symObjAddr: 0x0, symBinAddr: 0x8B8, symSize: 0x224 }
  - { offsetInCU: 0x9D3D, offset: 0x9D3D, size: 0x8, addend: 0x0, symName: __ZL11instantiateP7_objectS0_, symObjAddr: 0x224, symBinAddr: 0xADC, symSize: 0x120 }
  - { offsetInCU: 0x9F29, offset: 0x9F29, size: 0x8, addend: 0x0, symName: __ZL95__struct_compiled_op_m163e4a920b367e009e8c58bb285d006895d3bc8ec2f2c7aefaff46da430c9cd0_executorPN12_GLOBAL__N_186__struct_compiled_op_m163e4a920b367e009e8c58bb285d006895d3bc8ec2f2c7aefaff46da430c9cd0E, symObjAddr: 0x344, symBinAddr: 0xBFC, symSize: 0x135C }
  - { offsetInCU: 0x9F9E, offset: 0x9F9E, size: 0x8, addend: 0x0, symName: __ZL11instantiateP7_objectS0_.cold.1, symObjAddr: 0x2C50, symBinAddr: 0x3508, symSize: 0x28 }
  - { offsetInCU: 0x9FB6, offset: 0x9FB6, size: 0x8, addend: 0x0, symName: __ZL11instantiateP7_objectS0_.cold.2, symObjAddr: 0x2C78, symBinAddr: 0x3530, symSize: 0x28 }
  - { offsetInCU: 0xA4FF, offset: 0xA4FF, size: 0x8, addend: 0x0, symName: __ZL95__struct_compiled_op_m163e4a920b367e009e8c58bb285d006895d3bc8ec2f2c7aefaff46da430c9cd0_executorPN12_GLOBAL__N_186__struct_compiled_op_m163e4a920b367e009e8c58bb285d006895d3bc8ec2f2c7aefaff46da430c9cd0E, symObjAddr: 0x344, symBinAddr: 0xBFC, symSize: 0x135C }
  - { offsetInCU: 0xB211, offset: 0xB211, size: 0x8, addend: 0x0, symName: __ZL95__struct_compiled_op_m163e4a920b367e009e8c58bb285d006895d3bc8ec2f2c7aefaff46da430c9cd0_executorPN12_GLOBAL__N_186__struct_compiled_op_m163e4a920b367e009e8c58bb285d006895d3bc8ec2f2c7aefaff46da430c9cd0E.cold.5, symObjAddr: 0x2D40, symBinAddr: 0x35F8, symSize: 0x28 }
  - { offsetInCU: 0xB23F, offset: 0xB23F, size: 0x8, addend: 0x0, symName: __ZL95__struct_compiled_op_m163e4a920b367e009e8c58bb285d006895d3bc8ec2f2c7aefaff46da430c9cd0_executorPN12_GLOBAL__N_186__struct_compiled_op_m163e4a920b367e009e8c58bb285d006895d3bc8ec2f2c7aefaff46da430c9cd0E.cold.1, symObjAddr: 0x2CA0, symBinAddr: 0x3558, symSize: 0x28 }
  - { offsetInCU: 0xB295, offset: 0xB295, size: 0x8, addend: 0x0, symName: __ZL95__struct_compiled_op_m163e4a920b367e009e8c58bb285d006895d3bc8ec2f2c7aefaff46da430c9cd0_executorPN12_GLOBAL__N_186__struct_compiled_op_m163e4a920b367e009e8c58bb285d006895d3bc8ec2f2c7aefaff46da430c9cd0E.cold.2, symObjAddr: 0x2CC8, symBinAddr: 0x3580, symSize: 0x28 }
  - { offsetInCU: 0xB2C3, offset: 0xB2C3, size: 0x8, addend: 0x0, symName: __ZL95__struct_compiled_op_m163e4a920b367e009e8c58bb285d006895d3bc8ec2f2c7aefaff46da430c9cd0_executorPN12_GLOBAL__N_186__struct_compiled_op_m163e4a920b367e009e8c58bb285d006895d3bc8ec2f2c7aefaff46da430c9cd0E.cold.3, symObjAddr: 0x2CF0, symBinAddr: 0x35A8, symSize: 0x28 }
  - { offsetInCU: 0xB2F1, offset: 0xB2F1, size: 0x8, addend: 0x0, symName: __ZL95__struct_compiled_op_m163e4a920b367e009e8c58bb285d006895d3bc8ec2f2c7aefaff46da430c9cd0_executorPN12_GLOBAL__N_186__struct_compiled_op_m163e4a920b367e009e8c58bb285d006895d3bc8ec2f2c7aefaff46da430c9cd0E.cold.4, symObjAddr: 0x2D18, symBinAddr: 0x35D0, symSize: 0x28 }
  - { offsetInCU: 0xB31F, offset: 0xB31F, size: 0x8, addend: 0x0, symName: __ZL95__struct_compiled_op_m163e4a920b367e009e8c58bb285d006895d3bc8ec2f2c7aefaff46da430c9cd0_executorPN12_GLOBAL__N_186__struct_compiled_op_m163e4a920b367e009e8c58bb285d006895d3bc8ec2f2c7aefaff46da430c9cd0E.cold.6, symObjAddr: 0x2D68, symBinAddr: 0x3620, symSize: 0x28 }
  - { offsetInCU: 0xB34D, offset: 0xB34D, size: 0x8, addend: 0x0, symName: __ZL95__struct_compiled_op_m163e4a920b367e009e8c58bb285d006895d3bc8ec2f2c7aefaff46da430c9cd0_executorPN12_GLOBAL__N_186__struct_compiled_op_m163e4a920b367e009e8c58bb285d006895d3bc8ec2f2c7aefaff46da430c9cd0E.cold.7, symObjAddr: 0x2D90, symBinAddr: 0x3648, symSize: 0x28 }
  - { offsetInCU: 0xB411, offset: 0xB411, size: 0x8, addend: 0x0, symName: __ZL97__struct_compiled_op_m163e4a920b367e009e8c58bb285d006895d3bc8ec2f2c7aefaff46da430c9cd0_destructorP7_object, symObjAddr: 0x16A0, symBinAddr: 0x1F58, symSize: 0x98 }
...
