---
triple:          'arm64-apple-darwin'
binary-path:     '/Users/paulosoares/personal/phd/code/tomcat-coordination/.pytensor_compiles/compiledir_2024.10.16--21.28.53_0/tmp130wp1d3/mbbb9279d15a22220fc34341cfeaab93fb031e4fd3ef57aef3fcc7aea88582be4.so'
relocations:
  - { offsetInCU: 0x26, offset: 0x26, size: 0x8, addend: 0x0, symName: _PyInit_mbbb9279d15a22220fc34341cfeaab93fb031e4fd3ef57aef3fcc7aea88582be4, symObjAddr: 0x0, symBinAddr: 0x16E8, symSize: 0x224 }
  - { offsetInCU: 0x53, offset: 0x53, size: 0x8, addend: 0x0, symName: __ZL11PyArray_API, symObjAddr: 0x13B58, symBinAddr: 0x8138, symSize: 0x0 }
  - { offsetInCU: 0x73, offset: 0x73, size: 0x8, addend: 0x0, symName: __ZL9moduledef, symObjAddr: 0x26F8, symBinAddr: 0x8090, symSize: 0x0 }
  - { offsetInCU: 0xC86, offset: 0xC86, size: 0x8, addend: 0x0, symName: __ZL9MyMethods, symObjAddr: 0x2760, symBinAddr: 0x80F8, symSize: 0x0 }
  - { offsetInCU: 0x3BFD, offset: 0x3BFD, size: 0x8, addend: 0x0, symName: _PyInit_mbbb9279d15a22220fc34341cfeaab93fb031e4fd3ef57aef3fcc7aea88582be4, symObjAddr: 0x0, symBinAddr: 0x16E8, symSize: 0x224 }
  - { offsetInCU: 0x3ED7, offset: 0x3ED7, size: 0x8, addend: 0x0, symName: __ZL11instantiateP7_objectS0_, symObjAddr: 0x224, symBinAddr: 0x190C, symSize: 0x198 }
  - { offsetInCU: 0x4224, offset: 0x4224, size: 0x8, addend: 0x0, symName: __ZL95__struct_compiled_op_mbbb9279d15a22220fc34341cfeaab93fb031e4fd3ef57aef3fcc7aea88582be4_executorPN12_GLOBAL__N_186__struct_compiled_op_mbbb9279d15a22220fc34341cfeaab93fb031e4fd3ef57aef3fcc7aea88582be4E, symObjAddr: 0x3BC, symBinAddr: 0x1AA4, symSize: 0x181C }
  - { offsetInCU: 0x4282, offset: 0x4282, size: 0x8, addend: 0x0, symName: __ZL11instantiateP7_objectS0_.cold.1, symObjAddr: 0x1CFC, symBinAddr: 0x33E4, symSize: 0x28 }
  - { offsetInCU: 0x4299, offset: 0x4299, size: 0x8, addend: 0x0, symName: __ZL11instantiateP7_objectS0_.cold.2, symObjAddr: 0x1D24, symBinAddr: 0x340C, symSize: 0x28 }
  - { offsetInCU: 0x4697, offset: 0x4697, size: 0x8, addend: 0x0, symName: __ZL95__struct_compiled_op_mbbb9279d15a22220fc34341cfeaab93fb031e4fd3ef57aef3fcc7aea88582be4_executorPN12_GLOBAL__N_186__struct_compiled_op_mbbb9279d15a22220fc34341cfeaab93fb031e4fd3ef57aef3fcc7aea88582be4E, symObjAddr: 0x3BC, symBinAddr: 0x1AA4, symSize: 0x181C }
  - { offsetInCU: 0x573A, offset: 0x573A, size: 0x8, addend: 0x0, symName: __ZL97__struct_compiled_op_mbbb9279d15a22220fc34341cfeaab93fb031e4fd3ef57aef3fcc7aea88582be4_destructorP7_object, symObjAddr: 0x1BD8, symBinAddr: 0x32C0, symSize: 0x124 }
  - { offsetInCU: 0x5765, offset: 0x5765, size: 0x8, addend: 0x0, symName: __ZL95__struct_compiled_op_mbbb9279d15a22220fc34341cfeaab93fb031e4fd3ef57aef3fcc7aea88582be4_executorPN12_GLOBAL__N_186__struct_compiled_op_mbbb9279d15a22220fc34341cfeaab93fb031e4fd3ef57aef3fcc7aea88582be4E.cold.1, symObjAddr: 0x1D4C, symBinAddr: 0x3434, symSize: 0x28 }
  - { offsetInCU: 0x5792, offset: 0x5792, size: 0x8, addend: 0x0, symName: __ZL95__struct_compiled_op_mbbb9279d15a22220fc34341cfeaab93fb031e4fd3ef57aef3fcc7aea88582be4_executorPN12_GLOBAL__N_186__struct_compiled_op_mbbb9279d15a22220fc34341cfeaab93fb031e4fd3ef57aef3fcc7aea88582be4E.cold.5, symObjAddr: 0x1DEC, symBinAddr: 0x34D4, symSize: 0x28 }
  - { offsetInCU: 0x57BF, offset: 0x57BF, size: 0x8, addend: 0x0, symName: __ZL95__struct_compiled_op_mbbb9279d15a22220fc34341cfeaab93fb031e4fd3ef57aef3fcc7aea88582be4_executorPN12_GLOBAL__N_186__struct_compiled_op_mbbb9279d15a22220fc34341cfeaab93fb031e4fd3ef57aef3fcc7aea88582be4E.cold.7, symObjAddr: 0x1E3C, symBinAddr: 0x3524, symSize: 0x28 }
  - { offsetInCU: 0x5803, offset: 0x5803, size: 0x8, addend: 0x0, symName: __ZL95__struct_compiled_op_mbbb9279d15a22220fc34341cfeaab93fb031e4fd3ef57aef3fcc7aea88582be4_executorPN12_GLOBAL__N_186__struct_compiled_op_mbbb9279d15a22220fc34341cfeaab93fb031e4fd3ef57aef3fcc7aea88582be4E.cold.2, symObjAddr: 0x1D74, symBinAddr: 0x345C, symSize: 0x28 }
  - { offsetInCU: 0x5830, offset: 0x5830, size: 0x8, addend: 0x0, symName: __ZL95__struct_compiled_op_mbbb9279d15a22220fc34341cfeaab93fb031e4fd3ef57aef3fcc7aea88582be4_executorPN12_GLOBAL__N_186__struct_compiled_op_mbbb9279d15a22220fc34341cfeaab93fb031e4fd3ef57aef3fcc7aea88582be4E.cold.3, symObjAddr: 0x1D9C, symBinAddr: 0x3484, symSize: 0x28 }
  - { offsetInCU: 0x585D, offset: 0x585D, size: 0x8, addend: 0x0, symName: __ZL95__struct_compiled_op_mbbb9279d15a22220fc34341cfeaab93fb031e4fd3ef57aef3fcc7aea88582be4_executorPN12_GLOBAL__N_186__struct_compiled_op_mbbb9279d15a22220fc34341cfeaab93fb031e4fd3ef57aef3fcc7aea88582be4E.cold.4, symObjAddr: 0x1DC4, symBinAddr: 0x34AC, symSize: 0x28 }
  - { offsetInCU: 0x588A, offset: 0x588A, size: 0x8, addend: 0x0, symName: __ZL95__struct_compiled_op_mbbb9279d15a22220fc34341cfeaab93fb031e4fd3ef57aef3fcc7aea88582be4_executorPN12_GLOBAL__N_186__struct_compiled_op_mbbb9279d15a22220fc34341cfeaab93fb031e4fd3ef57aef3fcc7aea88582be4E.cold.6, symObjAddr: 0x1E14, symBinAddr: 0x34FC, symSize: 0x28 }
  - { offsetInCU: 0x58B7, offset: 0x58B7, size: 0x8, addend: 0x0, symName: __ZL95__struct_compiled_op_mbbb9279d15a22220fc34341cfeaab93fb031e4fd3ef57aef3fcc7aea88582be4_executorPN12_GLOBAL__N_186__struct_compiled_op_mbbb9279d15a22220fc34341cfeaab93fb031e4fd3ef57aef3fcc7aea88582be4E.cold.8, symObjAddr: 0x1E64, symBinAddr: 0x354C, symSize: 0x28 }
  - { offsetInCU: 0x58E4, offset: 0x58E4, size: 0x8, addend: 0x0, symName: __ZL95__struct_compiled_op_mbbb9279d15a22220fc34341cfeaab93fb031e4fd3ef57aef3fcc7aea88582be4_executorPN12_GLOBAL__N_186__struct_compiled_op_mbbb9279d15a22220fc34341cfeaab93fb031e4fd3ef57aef3fcc7aea88582be4E.cold.9, symObjAddr: 0x1E8C, symBinAddr: 0x3574, symSize: 0x28 }
  - { offsetInCU: 0x5911, offset: 0x5911, size: 0x8, addend: 0x0, symName: __ZL95__struct_compiled_op_mbbb9279d15a22220fc34341cfeaab93fb031e4fd3ef57aef3fcc7aea88582be4_executorPN12_GLOBAL__N_186__struct_compiled_op_mbbb9279d15a22220fc34341cfeaab93fb031e4fd3ef57aef3fcc7aea88582be4E.cold.10, symObjAddr: 0x1EB4, symBinAddr: 0x359C, symSize: 0x28 }
  - { offsetInCU: 0x593E, offset: 0x593E, size: 0x8, addend: 0x0, symName: __ZL95__struct_compiled_op_mbbb9279d15a22220fc34341cfeaab93fb031e4fd3ef57aef3fcc7aea88582be4_executorPN12_GLOBAL__N_186__struct_compiled_op_mbbb9279d15a22220fc34341cfeaab93fb031e4fd3ef57aef3fcc7aea88582be4E.cold.11, symObjAddr: 0x1EDC, symBinAddr: 0x35C4, symSize: 0x28 }
  - { offsetInCU: 0x596B, offset: 0x596B, size: 0x8, addend: 0x0, symName: __ZL95__struct_compiled_op_mbbb9279d15a22220fc34341cfeaab93fb031e4fd3ef57aef3fcc7aea88582be4_executorPN12_GLOBAL__N_186__struct_compiled_op_mbbb9279d15a22220fc34341cfeaab93fb031e4fd3ef57aef3fcc7aea88582be4E.cold.12, symObjAddr: 0x1F04, symBinAddr: 0x35EC, symSize: 0x28 }
  - { offsetInCU: 0x5A7E, offset: 0x5A7E, size: 0x8, addend: 0x0, symName: __ZL97__struct_compiled_op_mbbb9279d15a22220fc34341cfeaab93fb031e4fd3ef57aef3fcc7aea88582be4_destructorP7_object, symObjAddr: 0x1BD8, symBinAddr: 0x32C0, symSize: 0x124 }
...
